
output.elf:     file format elf32-littlearm


Disassembly of section .text:

08008000 <g_pfnVectors>:
 8008000:	00 9a 00 20 75 81 00 08 01 b9 00 08 03 b9 00 08     ... u...........
 8008010:	05 b9 00 08 07 b9 00 08 09 b9 00 08 00 00 00 00     ................
	...
 800802c:	0d b9 00 08 0b b9 00 08 00 00 00 00 0f b9 00 08     ................
 800803c:	11 b9 00 08 b9 ba 00 08 bb ba 00 08 bd ba 00 08     ................
 800804c:	bf ba 00 08 c1 ba 00 08 c3 ba 00 08 c5 ba 00 08     ................
 800805c:	c7 ba 00 08 c9 ba 00 08 cb ba 00 08 cd ba 00 08     ................
 800806c:	cf ba 00 08 d1 ba 00 08 d3 ba 00 08 d5 ba 00 08     ................
 800807c:	d7 ba 00 08 d9 ba 00 08 db ba 00 08 dd ba 00 08     ................
 800808c:	df ba 00 08 e1 ba 00 08 33 81 00 08 33 81 00 08     ........3...3...
 800809c:	e9 ba 00 08 eb ba 00 08 ed ba 00 08 ef ba 00 08     ................
 80080ac:	f1 ba 00 08 f3 ba 00 08 f5 ba 00 08 f7 ba 00 08     ................
 80080bc:	f9 ba 00 08 fb ba 00 08 fd ba 00 08 ff ba 00 08     ................
 80080cc:	01 bb 00 08 03 bb 00 08 05 bb 00 08 07 bb 00 08     ................
 80080dc:	09 bb 00 08 0b bb 00 08 0d bb 00 08 0f bb 00 08     ................
 80080ec:	11 bb 00 08 13 bb 00 08 15 bb 00 08 17 bb 00 08     ................
 80080fc:	19 bb 00 08 1b bb 00 08 1d bb 00 08 1f bb 00 08     ................
 800810c:	21 bb 00 08 23 bb 00 08 25 bb 00 08 27 bb 00 08     !...#...%...'...
 800811c:	29 bb 00 08 2b bb 00 08 2d bb 00 08 2f bb 00 08     )...+...-.../...
 800812c:	31 bb 00 08                                         1...

08008130 <Dummy_Handler>:
 8008130:	4770      	bx	lr

08008132 <Default_Handler>:
 8008132:	e7fe      	b.n	8008132 <Default_Handler>

08008134 <__Init_Data>:
 8008134:	4a0a      	ldr	r2, [pc, #40]	; (8008160 <__Init_Data+0x2c>)
 8008136:	4b0b      	ldr	r3, [pc, #44]	; (8008164 <__Init_Data+0x30>)
 8008138:	429a      	cmp	r2, r3
 800813a:	d002      	beq.n	8008142 <__Init_Data+0xe>
 800813c:	490a      	ldr	r1, [pc, #40]	; (8008168 <__Init_Data+0x34>)
 800813e:	428b      	cmp	r3, r1
 8008140:	d305      	bcc.n	800814e <__Init_Data+0x1a>
 8008142:	2100      	movs	r1, #0
 8008144:	4b09      	ldr	r3, [pc, #36]	; (800816c <__Init_Data+0x38>)
 8008146:	4a0a      	ldr	r2, [pc, #40]	; (8008170 <__Init_Data+0x3c>)
 8008148:	4293      	cmp	r3, r2
 800814a:	d305      	bcc.n	8008158 <__Init_Data+0x24>
 800814c:	4770      	bx	lr
 800814e:	f852 0b04 	ldr.w	r0, [r2], #4
 8008152:	f843 0b04 	str.w	r0, [r3], #4
 8008156:	e7f2      	b.n	800813e <__Init_Data+0xa>
 8008158:	f843 1b04 	str.w	r1, [r3], #4
 800815c:	e7f4      	b.n	8008148 <__Init_Data+0x14>
 800815e:	bf00      	nop
 8008160:	08014878 	.word	0x08014878
 8008164:	20000000 	.word	0x20000000
 8008168:	2000023c 	.word	0x2000023c
 800816c:	20000240 	.word	0x20000240
 8008170:	200095d7 	.word	0x200095d7

08008174 <Reset_Handler>:
 8008174:	b508      	push	{r3, lr}
 8008176:	f7ff ffdd 	bl	8008134 <__Init_Data>
 800817a:	f000 f94d 	bl	8008418 <main>
 800817e:	e7fe      	b.n	800817e <Reset_Handler+0xa>

08008180 <Hardware_Init>:
 8008180:	b510      	push	{r4, lr}
 8008182:	4c20      	ldr	r4, [pc, #128]	; (8008204 <Hardware_Init+0x84>)
 8008184:	2004      	movs	r0, #4
 8008186:	4621      	mov	r1, r4
 8008188:	f7f7 ffba 	bl	8000100 <__Bios>
 800818c:	4621      	mov	r1, r4
 800818e:	2006      	movs	r0, #6
 8008190:	f7f7 ffb6 	bl	8000100 <__Bios>
 8008194:	f44f 4100 	mov.w	r1, #32768	; 0x8000
 8008198:	2001      	movs	r0, #1
 800819a:	f7f7 ffb1 	bl	8000100 <__Bios>
 800819e:	f44f 727a 	mov.w	r2, #1000	; 0x3e8
 80081a2:	4b19      	ldr	r3, [pc, #100]	; (8008208 <Hardware_Init+0x88>)
 80081a4:	21f0      	movs	r1, #240	; 0xf0
 80081a6:	681b      	ldr	r3, [r3, #0]
 80081a8:	2005      	movs	r0, #5
 80081aa:	fbb3 f3f2 	udiv	r3, r3, r2
 80081ae:	4a17      	ldr	r2, [pc, #92]	; (800820c <Hardware_Init+0x8c>)
 80081b0:	3b01      	subs	r3, #1
 80081b2:	6053      	str	r3, [r2, #4]
 80081b4:	4b16      	ldr	r3, [pc, #88]	; (8008210 <Hardware_Init+0x90>)
 80081b6:	f883 1023 	strb.w	r1, [r3, #35]	; 0x23
 80081ba:	2300      	movs	r3, #0
 80081bc:	6093      	str	r3, [r2, #8]
 80081be:	2307      	movs	r3, #7
 80081c0:	4621      	mov	r1, r4
 80081c2:	6013      	str	r3, [r2, #0]
 80081c4:	f7f7 ff9c 	bl	8000100 <__Bios>
 80081c8:	2132      	movs	r1, #50	; 0x32
 80081ca:	2005      	movs	r0, #5
 80081cc:	f7f7 ff98 	bl	8000100 <__Bios>
 80081d0:	20c8      	movs	r0, #200	; 0xc8
 80081d2:	f003 fc5b 	bl	800ba8c <Beep_mS>
 80081d6:	4621      	mov	r1, r4
 80081d8:	2015      	movs	r0, #21
 80081da:	f7f7 ff91 	bl	8000100 <__Bios>
 80081de:	4621      	mov	r1, r4
 80081e0:	2012      	movs	r0, #18
 80081e2:	f7f7 ff8d 	bl	8000100 <__Bios>
 80081e6:	f004 f884 	bl	800c2f2 <DiskConfig>
 80081ea:	4621      	mov	r1, r4
 80081ec:	2011      	movs	r0, #17
 80081ee:	f7f7 ff87 	bl	8000100 <__Bios>
 80081f2:	e8bd 4010 	ldmia.w	sp!, {r4, lr}
 80081f6:	2164      	movs	r1, #100	; 0x64
 80081f8:	4b06      	ldr	r3, [pc, #24]	; (8008214 <Hardware_Init+0x94>)
 80081fa:	2011      	movs	r0, #17
 80081fc:	8e1b      	ldrh	r3, [r3, #48]	; 0x30
 80081fe:	4359      	muls	r1, r3
 8008200:	f7f7 bf7e 	b.w	8000100 <__Bios>
 8008204:	ffff0000 	.word	0xffff0000
 8008208:	2000011c 	.word	0x2000011c
 800820c:	e000e010 	.word	0xe000e010
 8008210:	e000ed00 	.word	0xe000ed00
 8008214:	2000000c 	.word	0x2000000c

08008218 <Show_Startup_Info>:
 8008218:	b537      	push	{r0, r1, r2, r4, r5, lr}
 800821a:	2400      	movs	r4, #0
 800821c:	4d1d      	ldr	r5, [pc, #116]	; (8008294 <Show_Startup_Info+0x7c>)
 800821e:	4623      	mov	r3, r4
 8008220:	4622      	mov	r2, r4
 8008222:	215a      	movs	r1, #90	; 0x5a
 8008224:	4620      	mov	r0, r4
 8008226:	9501      	str	r5, [sp, #4]
 8008228:	9400      	str	r4, [sp, #0]
 800822a:	f003 fce9 	bl	800bc00 <Disp_Str8x14>
 800822e:	4623      	mov	r3, r4
 8008230:	4622      	mov	r2, r4
 8008232:	2146      	movs	r1, #70	; 0x46
 8008234:	4620      	mov	r0, r4
 8008236:	e9cd 4500 	strd	r4, r5, [sp]
 800823a:	f003 fce1 	bl	800bc00 <Disp_Str8x14>
 800823e:	4b16      	ldr	r3, [pc, #88]	; (8008298 <Show_Startup_Info+0x80>)
 8008240:	f64f 72ff 	movw	r2, #65535	; 0xffff
 8008244:	e9cd 4300 	strd	r4, r3, [sp]
 8008248:	215a      	movs	r1, #90	; 0x5a
 800824a:	4623      	mov	r3, r4
 800824c:	2008      	movs	r0, #8
 800824e:	f003 fcd7 	bl	800bc00 <Disp_Str8x14>
 8008252:	4b12      	ldr	r3, [pc, #72]	; (800829c <Show_Startup_Info+0x84>)
 8008254:	f64f 72ff 	movw	r2, #65535	; 0xffff
 8008258:	e9cd 4300 	strd	r4, r3, [sp]
 800825c:	215a      	movs	r1, #90	; 0x5a
 800825e:	4623      	mov	r3, r4
 8008260:	20d8      	movs	r0, #216	; 0xd8
 8008262:	f003 fccd 	bl	800bc00 <Disp_Str8x14>
 8008266:	4b0e      	ldr	r3, [pc, #56]	; (80082a0 <Show_Startup_Info+0x88>)
 8008268:	2146      	movs	r1, #70	; 0x46
 800826a:	e9cd 4300 	strd	r4, r3, [sp]
 800826e:	f64f 72ff 	movw	r2, #65535	; 0xffff
 8008272:	4623      	mov	r3, r4
 8008274:	2008      	movs	r0, #8
 8008276:	f003 fcc3 	bl	800bc00 <Disp_Str8x14>
 800827a:	f44f 707a 	mov.w	r0, #1000	; 0x3e8
 800827e:	f004 f815 	bl	800c2ac <Delay_mS>
 8008282:	4908      	ldr	r1, [pc, #32]	; (80082a4 <Show_Startup_Info+0x8c>)
 8008284:	2010      	movs	r0, #16
 8008286:	f7f7 ff3b 	bl	8000100 <__Bios>
 800828a:	b900      	cbnz	r0, 800828e <Show_Startup_Info+0x76>
 800828c:	e7fe      	b.n	800828c <Show_Startup_Info+0x74>
 800828e:	b003      	add	sp, #12
 8008290:	bd30      	pop	{r4, r5, pc}
 8008292:	bf00      	nop
 8008294:	08012ba0 	.word	0x08012ba0
 8008298:	08012bc9 	.word	0x08012bc9
 800829c:	20000000 	.word	0x20000000
 80082a0:	08012be3 	.word	0x08012be3
 80082a4:	fffa0000 	.word	0xfffa0000

080082a8 <FPGA_Startup_Wave>:
 80082a8:	2200      	movs	r2, #0
 80082aa:	b510      	push	{r4, lr}
 80082ac:	4611      	mov	r1, r2
 80082ae:	2001      	movs	r0, #1
 80082b0:	f003 ff9c 	bl	800c1ec <FPGA_ReadWrite>
 80082b4:	229a      	movs	r2, #154	; 0x9a
 80082b6:	2101      	movs	r1, #1
 80082b8:	2004      	movs	r0, #4
 80082ba:	f003 ff97 	bl	800c1ec <FPGA_ReadWrite>
 80082be:	f44f 728c 	mov.w	r2, #280	; 0x118
 80082c2:	2102      	movs	r1, #2
 80082c4:	2005      	movs	r0, #5
 80082c6:	f003 ff91 	bl	800c1ec <FPGA_ReadWrite>
 80082ca:	f240 1219 	movw	r2, #281	; 0x119
 80082ce:	2100      	movs	r1, #0
 80082d0:	4828      	ldr	r0, [pc, #160]	; (8008374 <FPGA_Startup_Wave+0xcc>)
 80082d2:	f00a fc32 	bl	8012b3a <memset>
 80082d6:	f240 1219 	movw	r2, #281	; 0x119
 80082da:	2100      	movs	r1, #0
 80082dc:	4826      	ldr	r0, [pc, #152]	; (8008378 <FPGA_Startup_Wave+0xd0>)
 80082de:	4c27      	ldr	r4, [pc, #156]	; (800837c <FPGA_Startup_Wave+0xd4>)
 80082e0:	f00a fc2b 	bl	8012b3a <memset>
 80082e4:	4a23      	ldr	r2, [pc, #140]	; (8008374 <FPGA_Startup_Wave+0xcc>)
 80082e6:	f44f 718c 	mov.w	r1, #280	; 0x118
 80082ea:	2003      	movs	r0, #3
 80082ec:	f003 ff96 	bl	800c21c <FPGA_LCD_RW>
 80082f0:	2005      	movs	r0, #5
 80082f2:	f003 ffdb 	bl	800c2ac <Delay_mS>
 80082f6:	8ba2      	ldrh	r2, [r4, #28]
 80082f8:	4b21      	ldr	r3, [pc, #132]	; (8008380 <FPGA_Startup_Wave+0xd8>)
 80082fa:	8ae1      	ldrh	r1, [r4, #22]
 80082fc:	801a      	strh	r2, [r3, #0]
 80082fe:	4b21      	ldr	r3, [pc, #132]	; (8008384 <FPGA_Startup_Wave+0xdc>)
 8008300:	2019      	movs	r0, #25
 8008302:	8019      	strh	r1, [r3, #0]
 8008304:	8b21      	ldrh	r1, [r4, #24]
 8008306:	4b20      	ldr	r3, [pc, #128]	; (8008388 <FPGA_Startup_Wave+0xe0>)
 8008308:	8019      	strh	r1, [r3, #0]
 800830a:	4b20      	ldr	r3, [pc, #128]	; (800838c <FPGA_Startup_Wave+0xe4>)
 800830c:	8be1      	ldrh	r1, [r4, #30]
 800830e:	8019      	strh	r1, [r3, #0]
 8008310:	2102      	movs	r1, #2
 8008312:	f003 ff6b 	bl	800c1ec <FPGA_ReadWrite>
 8008316:	8ae2      	ldrh	r2, [r4, #22]
 8008318:	2102      	movs	r1, #2
 800831a:	201a      	movs	r0, #26
 800831c:	f003 ff66 	bl	800c1ec <FPGA_ReadWrite>
 8008320:	8b22      	ldrh	r2, [r4, #24]
 8008322:	2102      	movs	r1, #2
 8008324:	201b      	movs	r0, #27
 8008326:	f003 ff61 	bl	800c1ec <FPGA_ReadWrite>
 800832a:	8be2      	ldrh	r2, [r4, #30]
 800832c:	2102      	movs	r1, #2
 800832e:	2018      	movs	r0, #24
 8008330:	f003 ff5c 	bl	800c1ec <FPGA_ReadWrite>
 8008334:	2002      	movs	r0, #2
 8008336:	f003 ffb9 	bl	800c2ac <Delay_mS>
 800833a:	f240 123f 	movw	r2, #319	; 0x13f
 800833e:	23db      	movs	r3, #219	; 0xdb
 8008340:	2142      	movs	r1, #66	; 0x42
 8008342:	2028      	movs	r0, #40	; 0x28
 8008344:	f003 fc2e 	bl	800bba4 <Set_Block>
 8008348:	4911      	ldr	r1, [pc, #68]	; (8008390 <FPGA_Startup_Wave+0xe8>)
 800834a:	2008      	movs	r0, #8
 800834c:	f7f7 fed8 	bl	8000100 <__Bios>
 8008350:	2200      	movs	r2, #0
 8008352:	2006      	movs	r0, #6
 8008354:	4611      	mov	r1, r2
 8008356:	f003 ff49 	bl	800c1ec <FPGA_ReadWrite>
 800835a:	2200      	movs	r2, #0
 800835c:	4611      	mov	r1, r2
 800835e:	4610      	mov	r0, r2
 8008360:	f003 ff44 	bl	800c1ec <FPGA_ReadWrite>
 8008364:	05c3      	lsls	r3, r0, #23
 8008366:	d4f8      	bmi.n	800835a <FPGA_Startup_Wave+0xb2>
 8008368:	e8bd 4010 	ldmia.w	sp!, {r4, lr}
 800836c:	4909      	ldr	r1, [pc, #36]	; (8008394 <FPGA_Startup_Wave+0xec>)
 800836e:	2008      	movs	r0, #8
 8008370:	f7f7 bec6 	b.w	8000100 <__Bios>
 8008374:	200009da 	.word	0x200009da
 8008378:	20000af3 	.word	0x20000af3
 800837c:	2000000c 	.word	0x2000000c
 8008380:	200009a2 	.word	0x200009a2
 8008384:	2000099e 	.word	0x2000099e
 8008388:	200009a0 	.word	0x200009a0
 800838c:	200009a4 	.word	0x200009a4
 8008390:	fff90000 	.word	0xfff90000
 8008394:	fffb0000 	.word	0xfffb0000

08008398 <Set_SysParam>:
 8008398:	b538      	push	{r3, r4, r5, lr}
 800839a:	2101      	movs	r1, #1
 800839c:	2300      	movs	r3, #0
 800839e:	2006      	movs	r0, #6
 80083a0:	250a      	movs	r5, #10
 80083a2:	4a15      	ldr	r2, [pc, #84]	; (80083f8 <Set_SysParam+0x60>)
 80083a4:	4c15      	ldr	r4, [pc, #84]	; (80083fc <Set_SysParam+0x64>)
 80083a6:	7011      	strb	r1, [r2, #0]
 80083a8:	7050      	strb	r0, [r2, #1]
 80083aa:	7093      	strb	r3, [r2, #2]
 80083ac:	4a14      	ldr	r2, [pc, #80]	; (8008400 <Set_SysParam+0x68>)
 80083ae:	8aa0      	ldrh	r0, [r4, #20]
 80083b0:	7013      	strb	r3, [r2, #0]
 80083b2:	7053      	strb	r3, [r2, #1]
 80083b4:	7093      	strb	r3, [r2, #2]
 80083b6:	4a13      	ldr	r2, [pc, #76]	; (8008404 <Set_SysParam+0x6c>)
 80083b8:	8010      	strh	r0, [r2, #0]
 80083ba:	8d60      	ldrh	r0, [r4, #42]	; 0x2a
 80083bc:	4a12      	ldr	r2, [pc, #72]	; (8008408 <Set_SysParam+0x70>)
 80083be:	7010      	strb	r0, [r2, #0]
 80083c0:	8da0      	ldrh	r0, [r4, #44]	; 0x2c
 80083c2:	4a12      	ldr	r2, [pc, #72]	; (800840c <Set_SysParam+0x74>)
 80083c4:	7010      	strb	r0, [r2, #0]
 80083c6:	4a12      	ldr	r2, [pc, #72]	; (8008410 <Set_SysParam+0x78>)
 80083c8:	8013      	strh	r3, [r2, #0]
 80083ca:	4b12      	ldr	r3, [pc, #72]	; (8008414 <Set_SysParam+0x7c>)
 80083cc:	7019      	strb	r1, [r3, #0]
 80083ce:	f004 f9e9 	bl	800c7a4 <ResetPowerOffTime>
 80083d2:	f894 0050 	ldrb.w	r0, [r4, #80]	; 0x50
 80083d6:	f004 fe5f 	bl	800d098 <PIO_Init>
 80083da:	f8b4 107e 	ldrh.w	r1, [r4, #126]	; 0x7e
 80083de:	2008      	movs	r0, #8
 80083e0:	4369      	muls	r1, r5
 80083e2:	f7f7 fe8d 	bl	8000100 <__Bios>
 80083e6:	f8b4 107c 	ldrh.w	r1, [r4, #124]	; 0x7c
 80083ea:	2005      	movs	r0, #5
 80083ec:	4369      	muls	r1, r5
 80083ee:	e8bd 4038 	ldmia.w	sp!, {r3, r4, r5, lr}
 80083f2:	f7f7 be85 	b.w	8000100 <__Bios>
 80083f6:	bf00      	nop
 80083f8:	20004c12 	.word	0x20004c12
 80083fc:	2000000c 	.word	0x2000000c
 8008400:	20004c0f 	.word	0x20004c0f
 8008404:	200009ce 	.word	0x200009ce
 8008408:	200009a7 	.word	0x200009a7
 800840c:	200009a6 	.word	0x200009a6
 8008410:	200009b6 	.word	0x200009b6
 8008414:	200009d8 	.word	0x200009d8

08008418 <main>:
 8008418:	e92d 4ff8 	stmdb	sp!, {r3, r4, r5, r6, r7, r8, r9, sl, fp, lr}
 800841c:	f7ff feb0 	bl	8008180 <Hardware_Init>
 8008420:	f7ff fefa 	bl	8008218 <Show_Startup_Info>
 8008424:	f006 fd0e 	bl	800ee44 <ReadParameter>
 8008428:	2000      	movs	r0, #0
 800842a:	f003 fbca 	bl	800bbc2 <Clr_Scrn>
 800842e:	2700      	movs	r7, #0
 8008430:	f7ff ff3a 	bl	80082a8 <FPGA_Startup_Wave>
 8008434:	f7ff ffb0 	bl	8008398 <Set_SysParam>
 8008438:	f002 fa8e 	bl	800a958 <ShowAllMenu>
 800843c:	f006 f91a 	bl	800e674 <File_Num>
 8008440:	4cb6      	ldr	r4, [pc, #728]	; (800871c <main+0x304>)
 8008442:	f8df 8308 	ldr.w	r8, [pc, #776]	; 800874c <main+0x334>
 8008446:	f004 fbc3 	bl	800cbd0 <ShutdownTest>
 800844a:	f004 fb95 	bl	800cb78 <ShortcutBMP>
 800844e:	4bb3      	ldr	r3, [pc, #716]	; (800871c <main+0x304>)
 8008450:	781b      	ldrb	r3, [r3, #0]
 8008452:	b10b      	cbz	r3, 8008458 <main+0x40>
 8008454:	f004 fe88 	bl	800d168 <KeyQuickAct>
 8008458:	f8b8 3000 	ldrh.w	r3, [r8]
 800845c:	2b00      	cmp	r3, #0
 800845e:	f000 80b5 	beq.w	80085cc <main+0x1b4>
 8008462:	f5b3 6f00 	cmp.w	r3, #2048	; 0x800
 8008466:	4dae      	ldr	r5, [pc, #696]	; (8008720 <main+0x308>)
 8008468:	f000 80f1 	beq.w	800864e <main+0x236>
 800846c:	d827      	bhi.n	80084be <main+0xa6>
 800846e:	f5b3 7f00 	cmp.w	r3, #512	; 0x200
 8008472:	4eac      	ldr	r6, [pc, #688]	; (8008724 <main+0x30c>)
 8008474:	f8df a2c0 	ldr.w	sl, [pc, #704]	; 8008738 <main+0x320>
 8008478:	d049      	beq.n	800850e <main+0xf6>
 800847a:	f5b3 6f80 	cmp.w	r3, #1024	; 0x400
 800847e:	f000 80b3 	beq.w	80085e8 <main+0x1d0>
 8008482:	f5b3 7f80 	cmp.w	r3, #256	; 0x100
 8008486:	d123      	bne.n	80084d0 <main+0xb8>
 8008488:	f04f 0b00 	mov.w	fp, #0
 800848c:	2301      	movs	r3, #1
 800848e:	f8a8 b000 	strh.w	fp, [r8]
 8008492:	7023      	strb	r3, [r4, #0]
 8008494:	f886 b000 	strb.w	fp, [r6]
 8008498:	f88a b000 	strb.w	fp, [sl]
 800849c:	f004 fbf2 	bl	800cc84 <Process>
 80084a0:	4658      	mov	r0, fp
 80084a2:	f001 fc9b 	bl	8009ddc <ShowSmplStatus>
 80084a6:	4ba0      	ldr	r3, [pc, #640]	; (8008728 <main+0x310>)
 80084a8:	f893 9000 	ldrb.w	r9, [r3]
 80084ac:	f1b9 0f00 	cmp.w	r9, #0
 80084b0:	d04d      	beq.n	800854e <main+0x136>
 80084b2:	2032      	movs	r0, #50	; 0x32
 80084b4:	f883 b000 	strb.w	fp, [r3]
 80084b8:	f003 fae8 	bl	800ba8c <Beep_mS>
 80084bc:	e008      	b.n	80084d0 <main+0xb8>
 80084be:	f5b3 5f00 	cmp.w	r3, #8192	; 0x2000
 80084c2:	f000 8248 	beq.w	8008956 <main+0x53e>
 80084c6:	d806      	bhi.n	80084d6 <main+0xbe>
 80084c8:	f5b3 5f80 	cmp.w	r3, #4096	; 0x1000
 80084cc:	f000 835d 	beq.w	8008b8a <main+0x772>
 80084d0:	f04f 0900 	mov.w	r9, #0
 80084d4:	e03b      	b.n	800854e <main+0x136>
 80084d6:	f5b3 4f80 	cmp.w	r3, #16384	; 0x4000
 80084da:	f000 817f 	beq.w	80087dc <main+0x3c4>
 80084de:	f5b3 4f00 	cmp.w	r3, #32768	; 0x8000
 80084e2:	d1f5      	bne.n	80084d0 <main+0xb8>
 80084e4:	7823      	ldrb	r3, [r4, #0]
 80084e6:	2b00      	cmp	r3, #0
 80084e8:	f000 8201 	beq.w	80088ee <main+0x4d6>
 80084ec:	f895 9001 	ldrb.w	r9, [r5, #1]
 80084f0:	4b8e      	ldr	r3, [pc, #568]	; (800872c <main+0x314>)
 80084f2:	f1b9 0f02 	cmp.w	r9, #2
 80084f6:	f040 81e0 	bne.w	80088ba <main+0x4a2>
 80084fa:	488d      	ldr	r0, [pc, #564]	; (8008730 <main+0x318>)
 80084fc:	8b1a      	ldrh	r2, [r3, #24]
 80084fe:	8b00      	ldrh	r0, [r0, #24]
 8008500:	8ad9      	ldrh	r1, [r3, #22]
 8008502:	1a12      	subs	r2, r2, r0
 8008504:	428a      	cmp	r2, r1
 8008506:	bfac      	ite	ge
 8008508:	831a      	strhge	r2, [r3, #24]
 800850a:	8319      	strhlt	r1, [r3, #24]
 800850c:	e178      	b.n	8008800 <main+0x3e8>
 800850e:	f894 9000 	ldrb.w	r9, [r4]
 8008512:	f1b9 0f00 	cmp.w	r9, #0
 8008516:	d009      	beq.n	800852c <main+0x114>
 8008518:	78a0      	ldrb	r0, [r4, #2]
 800851a:	f04f 0900 	mov.w	r9, #0
 800851e:	f003 f939 	bl	800b794 <ShowPopItem>
 8008522:	2301      	movs	r3, #1
 8008524:	f884 9000 	strb.w	r9, [r4]
 8008528:	7033      	strb	r3, [r6, #0]
 800852a:	e010      	b.n	800854e <main+0x136>
 800852c:	7833      	ldrb	r3, [r6, #0]
 800852e:	b173      	cbz	r3, 800854e <main+0x136>
 8008530:	78a0      	ldrb	r0, [r4, #2]
 8008532:	2800      	cmp	r0, #0
 8008534:	d14f      	bne.n	80085d6 <main+0x1be>
 8008536:	4b7d      	ldr	r3, [pc, #500]	; (800872c <main+0x314>)
 8008538:	881b      	ldrh	r3, [r3, #0]
 800853a:	b143      	cbz	r3, 800854e <main+0x136>
 800853c:	4648      	mov	r0, r9
 800853e:	7829      	ldrb	r1, [r5, #0]
 8008540:	f001 fa26 	bl	8009990 <ShowSubItem>
 8008544:	2301      	movs	r3, #1
 8008546:	f886 9000 	strb.w	r9, [r6]
 800854a:	f88a 3000 	strb.w	r3, [sl]
 800854e:	f8b8 3000 	ldrh.w	r3, [r8]
 8008552:	4a78      	ldr	r2, [pc, #480]	; (8008734 <main+0x31c>)
 8008554:	421a      	tst	r2, r3
 8008556:	d002      	beq.n	800855e <main+0x146>
 8008558:	2032      	movs	r0, #50	; 0x32
 800855a:	f003 fa97 	bl	800ba8c <Beep_mS>
 800855e:	f001 fd75 	bl	800a04c <ShowTopTitle>
 8008562:	4b70      	ldr	r3, [pc, #448]	; (8008724 <main+0x30c>)
 8008564:	781b      	ldrb	r3, [r3, #0]
 8008566:	b133      	cbz	r3, 8008576 <main+0x15e>
 8008568:	f8b8 3000 	ldrh.w	r3, [r8]
 800856c:	2b10      	cmp	r3, #16
 800856e:	d002      	beq.n	8008576 <main+0x15e>
 8008570:	78a0      	ldrb	r0, [r4, #2]
 8008572:	f003 f90f 	bl	800b794 <ShowPopItem>
 8008576:	4b70      	ldr	r3, [pc, #448]	; (8008738 <main+0x320>)
 8008578:	781b      	ldrb	r3, [r3, #0]
 800857a:	b11b      	cbz	r3, 8008584 <main+0x16c>
 800857c:	78a0      	ldrb	r0, [r4, #2]
 800857e:	5c29      	ldrb	r1, [r5, r0]
 8008580:	f001 fa06 	bl	8009990 <ShowSubItem>
 8008584:	78a0      	ldrb	r0, [r4, #2]
 8008586:	5c29      	ldrb	r1, [r5, r0]
 8008588:	f004 fc8a 	bl	800cea0 <HW_Ctrl>
 800858c:	f001 feca 	bl	800a324 <ShowWindowPrecent>
 8008590:	78a3      	ldrb	r3, [r4, #2]
 8008592:	2b01      	cmp	r3, #1
 8008594:	d101      	bne.n	800859a <main+0x182>
 8008596:	f001 ff95 	bl	800a4c4 <ShowTimeBaseStr>
 800859a:	f002 f805 	bl	800a5a8 <ShowTimeMarkValue>
 800859e:	f004 f983 	bl	800c8a8 <ShowMeasureValue>
 80085a2:	f004 f8ff 	bl	800c7a4 <ResetPowerOffTime>
 80085a6:	2300      	movs	r3, #0
 80085a8:	f8a8 3000 	strh.w	r3, [r8]
 80085ac:	f1b9 0f00 	cmp.w	r9, #0
 80085b0:	d00c      	beq.n	80085cc <main+0x1b4>
 80085b2:	f240 1219 	movw	r2, #281	; 0x119
 80085b6:	4961      	ldr	r1, [pc, #388]	; (800873c <main+0x324>)
 80085b8:	4861      	ldr	r0, [pc, #388]	; (8008740 <main+0x328>)
 80085ba:	f00a fab3 	bl	8012b24 <memcpy>
 80085be:	f003 ff09 	bl	800c3d4 <ShowWaveToLCD>
 80085c2:	78a3      	ldrb	r3, [r4, #2]
 80085c4:	2b01      	cmp	r3, #1
 80085c6:	d101      	bne.n	80085cc <main+0x1b4>
 80085c8:	f003 fffc 	bl	800c5c4 <ZC_Scale>
 80085cc:	f004 f922 	bl	800c814 <StandbyAndPowerOff>
 80085d0:	f001 fcc4 	bl	8009f5c <ShowBattery>
 80085d4:	e737      	b.n	8008446 <main+0x2e>
 80085d6:	2804      	cmp	r0, #4
 80085d8:	d1b9      	bne.n	800854e <main+0x136>
 80085da:	4b54      	ldr	r3, [pc, #336]	; (800872c <main+0x314>)
 80085dc:	f8b3 3050 	ldrh.w	r3, [r3, #80]	; 0x50
 80085e0:	2b00      	cmp	r3, #0
 80085e2:	d1b4      	bne.n	800854e <main+0x136>
 80085e4:	7929      	ldrb	r1, [r5, #4]
 80085e6:	e7ab      	b.n	8008540 <main+0x128>
 80085e8:	f896 9000 	ldrb.w	r9, [r6]
 80085ec:	f1b9 0f00 	cmp.w	r9, #0
 80085f0:	d00a      	beq.n	8008608 <main+0x1f0>
 80085f2:	f04f 0901 	mov.w	r9, #1
 80085f6:	78a3      	ldrb	r3, [r4, #2]
 80085f8:	f884 9000 	strb.w	r9, [r4]
 80085fc:	2b01      	cmp	r3, #1
 80085fe:	bf04      	itt	eq
 8008600:	4a50      	ldreq	r2, [pc, #320]	; (8008744 <main+0x32c>)
 8008602:	7013      	strbeq	r3, [r2, #0]
 8008604:	2300      	movs	r3, #0
 8008606:	e78f      	b.n	8008528 <main+0x110>
 8008608:	f89a 3000 	ldrb.w	r3, [sl]
 800860c:	b1cb      	cbz	r3, 8008642 <main+0x22a>
 800860e:	f04f 0b01 	mov.w	fp, #1
 8008612:	4b46      	ldr	r3, [pc, #280]	; (800872c <main+0x314>)
 8008614:	7818      	ldrb	r0, [r3, #0]
 8008616:	f005 fb37 	bl	800dc88 <AnalyzeFrame>
 800861a:	f240 1219 	movw	r2, #281	; 0x119
 800861e:	4947      	ldr	r1, [pc, #284]	; (800873c <main+0x324>)
 8008620:	4847      	ldr	r0, [pc, #284]	; (8008740 <main+0x328>)
 8008622:	f00a fa7f 	bl	8012b24 <memcpy>
 8008626:	f003 fed5 	bl	800c3d4 <ShowWaveToLCD>
 800862a:	78a0      	ldrb	r0, [r4, #2]
 800862c:	f884 b000 	strb.w	fp, [r4]
 8008630:	f003 f8b0 	bl	800b794 <ShowPopItem>
 8008634:	f88a 9000 	strb.w	r9, [sl]
 8008638:	f886 b000 	strb.w	fp, [r6]
 800863c:	f884 9000 	strb.w	r9, [r4]
 8008640:	e785      	b.n	800854e <main+0x136>
 8008642:	2301      	movs	r3, #1
 8008644:	f886 9000 	strb.w	r9, [r6]
 8008648:	7023      	strb	r3, [r4, #0]
 800864a:	4699      	mov	r9, r3
 800864c:	e77f      	b.n	800854e <main+0x136>
 800864e:	4b35      	ldr	r3, [pc, #212]	; (8008724 <main+0x30c>)
 8008650:	781b      	ldrb	r3, [r3, #0]
 8008652:	2b00      	cmp	r3, #0
 8008654:	f000 80b2 	beq.w	80087bc <main+0x3a4>
 8008658:	78a3      	ldrb	r3, [r4, #2]
 800865a:	2b02      	cmp	r3, #2
 800865c:	d13e      	bne.n	80086dc <main+0x2c4>
 800865e:	78ab      	ldrb	r3, [r5, #2]
 8008660:	2b01      	cmp	r3, #1
 8008662:	d11b      	bne.n	800869c <main+0x284>
 8008664:	4931      	ldr	r1, [pc, #196]	; (800872c <main+0x314>)
 8008666:	8d4a      	ldrh	r2, [r1, #42]	; 0x2a
 8008668:	f012 09ff 	ands.w	r9, r2, #255	; 0xff
 800866c:	f43f af6f 	beq.w	800854e <main+0x136>
 8008670:	f1b9 0f05 	cmp.w	r9, #5
 8008674:	f43f af2c 	beq.w	80084d0 <main+0xb8>
 8008678:	f109 0907 	add.w	r9, r9, #7
 800867c:	b210      	sxth	r0, r2
 800867e:	fa42 f209 	asr.w	r2, r2, r9
 8008682:	fa03 f309 	lsl.w	r3, r3, r9
 8008686:	f012 0901 	ands.w	r9, r2, #1
 800868a:	b21b      	sxth	r3, r3
 800868c:	d003      	beq.n	8008696 <main+0x27e>
 800868e:	ea20 0303 	bic.w	r3, r0, r3
 8008692:	854b      	strh	r3, [r1, #42]	; 0x2a
 8008694:	e71c      	b.n	80084d0 <main+0xb8>
 8008696:	4303      	orrs	r3, r0
 8008698:	854b      	strh	r3, [r1, #42]	; 0x2a
 800869a:	e758      	b.n	800854e <main+0x136>
 800869c:	2b02      	cmp	r3, #2
 800869e:	f47f af17 	bne.w	80084d0 <main+0xb8>
 80086a2:	4922      	ldr	r1, [pc, #136]	; (800872c <main+0x314>)
 80086a4:	8d8b      	ldrh	r3, [r1, #44]	; 0x2c
 80086a6:	f013 09ff 	ands.w	r9, r3, #255	; 0xff
 80086aa:	f43f af50 	beq.w	800854e <main+0x136>
 80086ae:	f1b9 0f05 	cmp.w	r9, #5
 80086b2:	f43f af0d 	beq.w	80084d0 <main+0xb8>
 80086b6:	2201      	movs	r2, #1
 80086b8:	f109 0907 	add.w	r9, r9, #7
 80086bc:	b218      	sxth	r0, r3
 80086be:	fa43 f309 	asr.w	r3, r3, r9
 80086c2:	fa02 f209 	lsl.w	r2, r2, r9
 80086c6:	f013 0901 	ands.w	r9, r3, #1
 80086ca:	b212      	sxth	r2, r2
 80086cc:	d003      	beq.n	80086d6 <main+0x2be>
 80086ce:	ea20 0202 	bic.w	r2, r0, r2
 80086d2:	858a      	strh	r2, [r1, #44]	; 0x2c
 80086d4:	e6fc      	b.n	80084d0 <main+0xb8>
 80086d6:	4302      	orrs	r2, r0
 80086d8:	858a      	strh	r2, [r1, #44]	; 0x2c
 80086da:	e738      	b.n	800854e <main+0x136>
 80086dc:	2b04      	cmp	r3, #4
 80086de:	d105      	bne.n	80086ec <main+0x2d4>
 80086e0:	4b12      	ldr	r3, [pc, #72]	; (800872c <main+0x314>)
 80086e2:	f893 0050 	ldrb.w	r0, [r3, #80]	; 0x50
 80086e6:	f004 fa8d 	bl	800cc04 <PIO_SendData>
 80086ea:	e6f1      	b.n	80084d0 <main+0xb8>
 80086ec:	2b05      	cmp	r3, #5
 80086ee:	d13c      	bne.n	800876a <main+0x352>
 80086f0:	796b      	ldrb	r3, [r5, #5]
 80086f2:	bb6b      	cbnz	r3, 8008750 <main+0x338>
 80086f4:	f240 102b 	movw	r0, #299	; 0x12b
 80086f8:	21e1      	movs	r1, #225	; 0xe1
 80086fa:	f006 fad9 	bl	800ecb0 <Clear_File_ICO>
 80086fe:	4b0b      	ldr	r3, [pc, #44]	; (800872c <main+0x314>)
 8008700:	f8b3 0064 	ldrh.w	r0, [r3, #100]	; 0x64
 8008704:	f005 fffe 	bl	800e704 <Save_Bmp>
 8008708:	4607      	mov	r7, r0
 800870a:	4638      	mov	r0, r7
 800870c:	f006 fae0 	bl	800ecd0 <DispFileInfo>
 8008710:	2201      	movs	r2, #1
 8008712:	4b0d      	ldr	r3, [pc, #52]	; (8008748 <main+0x330>)
 8008714:	701a      	strb	r2, [r3, #0]
 8008716:	f001 fc21 	bl	8009f5c <ShowBattery>
 800871a:	e6d9      	b.n	80084d0 <main+0xb8>
 800871c:	20004c12 	.word	0x20004c12
 8008720:	20000244 	.word	0x20000244
 8008724:	20004c0f 	.word	0x20004c0f
 8008728:	200009d9 	.word	0x200009d9
 800872c:	2000000c 	.word	0x2000000c
 8008730:	0801360a 	.word	0x0801360a
 8008734:	fffff0f0 	.word	0xfffff0f0
 8008738:	20004c0c 	.word	0x20004c0c
 800873c:	20000af3 	.word	0x20000af3
 8008740:	200009da 	.word	0x200009da
 8008744:	20004c39 	.word	0x20004c39
 8008748:	200000d8 	.word	0x200000d8
 800874c:	200009b6 	.word	0x200009b6
 8008750:	2b01      	cmp	r3, #1
 8008752:	d1da      	bne.n	800870a <main+0x2f2>
 8008754:	21e1      	movs	r1, #225	; 0xe1
 8008756:	f240 102b 	movw	r0, #299	; 0x12b
 800875a:	f006 faa9 	bl	800ecb0 <Clear_File_ICO>
 800875e:	4bb2      	ldr	r3, [pc, #712]	; (8008a28 <main+0x610>)
 8008760:	f9b3 0066 	ldrsh.w	r0, [r3, #102]	; 0x66
 8008764:	f006 f884 	bl	800e870 <Save_Csv>
 8008768:	e7ce      	b.n	8008708 <main+0x2f0>
 800876a:	2b06      	cmp	r3, #6
 800876c:	f47f aeb0 	bne.w	80084d0 <main+0xb8>
 8008770:	f895 9006 	ldrb.w	r9, [r5, #6]
 8008774:	f1b9 0f00 	cmp.w	r9, #0
 8008778:	d10f      	bne.n	800879a <main+0x382>
 800877a:	f006 fad3 	bl	800ed24 <SaveParameter>
 800877e:	4607      	mov	r7, r0
 8008780:	79ab      	ldrb	r3, [r5, #6]
 8008782:	2b01      	cmp	r3, #1
 8008784:	f63f aee3 	bhi.w	800854e <main+0x136>
 8008788:	4638      	mov	r0, r7
 800878a:	f006 faa1 	bl	800ecd0 <DispFileInfo>
 800878e:	2201      	movs	r2, #1
 8008790:	4ba6      	ldr	r3, [pc, #664]	; (8008a2c <main+0x614>)
 8008792:	701a      	strb	r2, [r3, #0]
 8008794:	f001 fbe2 	bl	8009f5c <ShowBattery>
 8008798:	e6d9      	b.n	800854e <main+0x136>
 800879a:	f1b9 0f01 	cmp.w	r9, #1
 800879e:	d10a      	bne.n	80087b6 <main+0x39e>
 80087a0:	f006 fbf6 	bl	800ef90 <RestoreParameter>
 80087a4:	f006 fabe 	bl	800ed24 <SaveParameter>
 80087a8:	4ba0      	ldr	r3, [pc, #640]	; (8008a2c <main+0x614>)
 80087aa:	4607      	mov	r7, r0
 80087ac:	f883 9000 	strb.w	r9, [r3]
 80087b0:	f002 f8d2 	bl	800a958 <ShowAllMenu>
 80087b4:	e7e4      	b.n	8008780 <main+0x368>
 80087b6:	f04f 0900 	mov.w	r9, #0
 80087ba:	e7e1      	b.n	8008780 <main+0x368>
 80087bc:	f894 9000 	ldrb.w	r9, [r4]
 80087c0:	f1b9 0f00 	cmp.w	r9, #0
 80087c4:	f43f aec3 	beq.w	800854e <main+0x136>
 80087c8:	4999      	ldr	r1, [pc, #612]	; (8008a30 <main+0x618>)
 80087ca:	786a      	ldrb	r2, [r5, #1]
 80087cc:	7849      	ldrb	r1, [r1, #1]
 80087ce:	4291      	cmp	r1, r2
 80087d0:	d902      	bls.n	80087d8 <main+0x3c0>
 80087d2:	3201      	adds	r2, #1
 80087d4:	706a      	strb	r2, [r5, #1]
 80087d6:	e738      	b.n	800864a <main+0x232>
 80087d8:	706b      	strb	r3, [r5, #1]
 80087da:	e679      	b.n	80084d0 <main+0xb8>
 80087dc:	7823      	ldrb	r3, [r4, #0]
 80087de:	2b00      	cmp	r3, #0
 80087e0:	d03c      	beq.n	800885c <main+0x444>
 80087e2:	f895 9001 	ldrb.w	r9, [r5, #1]
 80087e6:	4b90      	ldr	r3, [pc, #576]	; (8008a28 <main+0x610>)
 80087e8:	f1b9 0f01 	cmp.w	r9, #1
 80087ec:	d111      	bne.n	8008812 <main+0x3fa>
 80087ee:	4891      	ldr	r0, [pc, #580]	; (8008a34 <main+0x61c>)
 80087f0:	8ada      	ldrh	r2, [r3, #22]
 80087f2:	8ac0      	ldrh	r0, [r0, #22]
 80087f4:	8b19      	ldrh	r1, [r3, #24]
 80087f6:	4402      	add	r2, r0
 80087f8:	428a      	cmp	r2, r1
 80087fa:	bfb4      	ite	lt
 80087fc:	82da      	strhlt	r2, [r3, #22]
 80087fe:	82d9      	strhge	r1, [r3, #22]
 8008800:	f240 1219 	movw	r2, #281	; 0x119
 8008804:	498c      	ldr	r1, [pc, #560]	; (8008a38 <main+0x620>)
 8008806:	488d      	ldr	r0, [pc, #564]	; (8008a3c <main+0x624>)
 8008808:	f00a f98c 	bl	8012b24 <memcpy>
 800880c:	f003 fde2 	bl	800c3d4 <ShowWaveToLCD>
 8008810:	e65e      	b.n	80084d0 <main+0xb8>
 8008812:	488b      	ldr	r0, [pc, #556]	; (8008a40 <main+0x628>)
 8008814:	f109 020a 	add.w	r2, r9, #10
 8008818:	f830 0012 	ldrh.w	r0, [r0, r2, lsl #1]
 800881c:	f833 1012 	ldrh.w	r1, [r3, r2, lsl #1]
 8008820:	4288      	cmp	r0, r1
 8008822:	bf81      	itttt	hi
 8008824:	4883      	ldrhi	r0, [pc, #524]	; (8008a34 <main+0x61c>)
 8008826:	f830 0012 	ldrhhi.w	r0, [r0, r2, lsl #1]
 800882a:	1809      	addhi	r1, r1, r0
 800882c:	f823 1012 	strhhi.w	r1, [r3, r2, lsl #1]
 8008830:	f1b9 0f00 	cmp.w	r9, #0
 8008834:	d102      	bne.n	800883c <main+0x424>
 8008836:	f003 fec5 	bl	800c5c4 <ZC_Scale>
 800883a:	e688      	b.n	800854e <main+0x136>
 800883c:	f1b9 0f05 	cmp.w	r9, #5
 8008840:	d103      	bne.n	800884a <main+0x432>
 8008842:	8a9a      	ldrh	r2, [r3, #20]
 8008844:	4b7f      	ldr	r3, [pc, #508]	; (8008a44 <main+0x62c>)
 8008846:	801a      	strh	r2, [r3, #0]
 8008848:	e7da      	b.n	8008800 <main+0x3e8>
 800884a:	f1b9 0f03 	cmp.w	r9, #3
 800884e:	d1d7      	bne.n	8008800 <main+0x3e8>
 8008850:	4b7d      	ldr	r3, [pc, #500]	; (8008a48 <main+0x630>)
 8008852:	2201      	movs	r2, #1
 8008854:	701a      	strb	r2, [r3, #0]
 8008856:	f003 feb5 	bl	800c5c4 <ZC_Scale>
 800885a:	e639      	b.n	80084d0 <main+0xb8>
 800885c:	4a7b      	ldr	r2, [pc, #492]	; (8008a4c <main+0x634>)
 800885e:	f892 9000 	ldrb.w	r9, [r2]
 8008862:	f1b9 0f00 	cmp.w	r9, #0
 8008866:	d00b      	beq.n	8008880 <main+0x468>
 8008868:	78a2      	ldrb	r2, [r4, #2]
 800886a:	f815 9002 	ldrb.w	r9, [r5, r2]
 800886e:	f1b9 0f00 	cmp.w	r9, #0
 8008872:	f43f ae6c 	beq.w	800854e <main+0x136>
 8008876:	f109 39ff 	add.w	r9, r9, #4294967295	; 0xffffffff
 800887a:	f805 9002 	strb.w	r9, [r5, r2]
 800887e:	e627      	b.n	80084d0 <main+0xb8>
 8008880:	4b73      	ldr	r3, [pc, #460]	; (8008a50 <main+0x638>)
 8008882:	781b      	ldrb	r3, [r3, #0]
 8008884:	2b00      	cmp	r3, #0
 8008886:	f43f ae62 	beq.w	800854e <main+0x136>
 800888a:	78a3      	ldrb	r3, [r4, #2]
 800888c:	b143      	cbz	r3, 80088a0 <main+0x488>
 800888e:	2b04      	cmp	r3, #4
 8008890:	f47f ae5d 	bne.w	800854e <main+0x136>
 8008894:	4a64      	ldr	r2, [pc, #400]	; (8008a28 <main+0x610>)
 8008896:	792b      	ldrb	r3, [r5, #4]
 8008898:	f8b2 1050 	ldrh.w	r1, [r2, #80]	; 0x50
 800889c:	4a6d      	ldr	r2, [pc, #436]	; (8008a54 <main+0x63c>)
 800889e:	e003      	b.n	80088a8 <main+0x490>
 80088a0:	4a61      	ldr	r2, [pc, #388]	; (8008a28 <main+0x610>)
 80088a2:	782b      	ldrb	r3, [r5, #0]
 80088a4:	8811      	ldrh	r1, [r2, #0]
 80088a6:	4a6c      	ldr	r2, [pc, #432]	; (8008a58 <main+0x640>)
 80088a8:	eb02 0283 	add.w	r2, r2, r3, lsl #2
 80088ac:	5c53      	ldrb	r3, [r2, r1]
 80088ae:	2b00      	cmp	r3, #0
 80088b0:	f43f ae0e 	beq.w	80084d0 <main+0xb8>
 80088b4:	3b01      	subs	r3, #1
 80088b6:	5453      	strb	r3, [r2, r1]
 80088b8:	e649      	b.n	800854e <main+0x136>
 80088ba:	4868      	ldr	r0, [pc, #416]	; (8008a5c <main+0x644>)
 80088bc:	f109 020a 	add.w	r2, r9, #10
 80088c0:	f830 0012 	ldrh.w	r0, [r0, r2, lsl #1]
 80088c4:	f833 1012 	ldrh.w	r1, [r3, r2, lsl #1]
 80088c8:	4288      	cmp	r0, r1
 80088ca:	bf3f      	itttt	cc
 80088cc:	4859      	ldrcc	r0, [pc, #356]	; (8008a34 <main+0x61c>)
 80088ce:	f830 0012 	ldrhcc.w	r0, [r0, r2, lsl #1]
 80088d2:	1a09      	subcc	r1, r1, r0
 80088d4:	f823 1012 	strhcc.w	r1, [r3, r2, lsl #1]
 80088d8:	f1b9 0f00 	cmp.w	r9, #0
 80088dc:	d0ab      	beq.n	8008836 <main+0x41e>
 80088de:	f1b9 0f05 	cmp.w	r9, #5
 80088e2:	d0ae      	beq.n	8008842 <main+0x42a>
 80088e4:	f1b9 0f03 	cmp.w	r9, #3
 80088e8:	d18a      	bne.n	8008800 <main+0x3e8>
 80088ea:	4b5d      	ldr	r3, [pc, #372]	; (8008a60 <main+0x648>)
 80088ec:	e7b1      	b.n	8008852 <main+0x43a>
 80088ee:	4b57      	ldr	r3, [pc, #348]	; (8008a4c <main+0x634>)
 80088f0:	f893 9000 	ldrb.w	r9, [r3]
 80088f4:	f1b9 0f00 	cmp.w	r9, #0
 80088f8:	d009      	beq.n	800890e <main+0x4f6>
 80088fa:	78a2      	ldrb	r2, [r4, #2]
 80088fc:	494c      	ldr	r1, [pc, #304]	; (8008a30 <main+0x618>)
 80088fe:	5cab      	ldrb	r3, [r5, r2]
 8008900:	5c89      	ldrb	r1, [r1, r2]
 8008902:	4299      	cmp	r1, r3
 8008904:	f67f ade4 	bls.w	80084d0 <main+0xb8>
 8008908:	3301      	adds	r3, #1
 800890a:	54ab      	strb	r3, [r5, r2]
 800890c:	e5e0      	b.n	80084d0 <main+0xb8>
 800890e:	4b50      	ldr	r3, [pc, #320]	; (8008a50 <main+0x638>)
 8008910:	781b      	ldrb	r3, [r3, #0]
 8008912:	2b00      	cmp	r3, #0
 8008914:	f43f addc 	beq.w	80084d0 <main+0xb8>
 8008918:	78a3      	ldrb	r3, [r4, #2]
 800891a:	b163      	cbz	r3, 8008936 <main+0x51e>
 800891c:	2b04      	cmp	r3, #4
 800891e:	f47f ae16 	bne.w	800854e <main+0x136>
 8008922:	4b41      	ldr	r3, [pc, #260]	; (8008a28 <main+0x610>)
 8008924:	7929      	ldrb	r1, [r5, #4]
 8008926:	f8b3 0050 	ldrh.w	r0, [r3, #80]	; 0x50
 800892a:	4b4a      	ldr	r3, [pc, #296]	; (8008a54 <main+0x63c>)
 800892c:	0089      	lsls	r1, r1, #2
 800892e:	440b      	add	r3, r1
 8008930:	5c1a      	ldrb	r2, [r3, r0]
 8008932:	4e4c      	ldr	r6, [pc, #304]	; (8008a64 <main+0x64c>)
 8008934:	e007      	b.n	8008946 <main+0x52e>
 8008936:	4b3c      	ldr	r3, [pc, #240]	; (8008a28 <main+0x610>)
 8008938:	7829      	ldrb	r1, [r5, #0]
 800893a:	8818      	ldrh	r0, [r3, #0]
 800893c:	4b46      	ldr	r3, [pc, #280]	; (8008a58 <main+0x640>)
 800893e:	0089      	lsls	r1, r1, #2
 8008940:	440b      	add	r3, r1
 8008942:	5c1a      	ldrb	r2, [r3, r0]
 8008944:	4e48      	ldr	r6, [pc, #288]	; (8008a68 <main+0x650>)
 8008946:	4431      	add	r1, r6
 8008948:	5c09      	ldrb	r1, [r1, r0]
 800894a:	4291      	cmp	r1, r2
 800894c:	f67f adff 	bls.w	800854e <main+0x136>
 8008950:	3201      	adds	r2, #1
 8008952:	541a      	strb	r2, [r3, r0]
 8008954:	e5fb      	b.n	800854e <main+0x136>
 8008956:	7823      	ldrb	r3, [r4, #0]
 8008958:	b153      	cbz	r3, 8008970 <main+0x558>
 800895a:	f894 9002 	ldrb.w	r9, [r4, #2]
 800895e:	f1b9 0f00 	cmp.w	r9, #0
 8008962:	f43f adf4 	beq.w	800854e <main+0x136>
 8008966:	f109 39ff 	add.w	r9, r9, #4294967295	; 0xffffffff
 800896a:	f884 9002 	strb.w	r9, [r4, #2]
 800896e:	e5af      	b.n	80084d0 <main+0xb8>
 8008970:	4b36      	ldr	r3, [pc, #216]	; (8008a4c <main+0x634>)
 8008972:	f893 9000 	ldrb.w	r9, [r3]
 8008976:	f1b9 0f00 	cmp.w	r9, #0
 800897a:	f000 80cf 	beq.w	8008b1c <main+0x704>
 800897e:	78a3      	ldrb	r3, [r4, #2]
 8008980:	4e29      	ldr	r6, [pc, #164]	; (8008a28 <main+0x610>)
 8008982:	2b01      	cmp	r3, #1
 8008984:	f040 80a0 	bne.w	8008ac8 <main+0x6b0>
 8008988:	786a      	ldrb	r2, [r5, #1]
 800898a:	2a03      	cmp	r2, #3
 800898c:	d10b      	bne.n	80089a6 <main+0x58e>
 800898e:	4a34      	ldr	r2, [pc, #208]	; (8008a60 <main+0x648>)
 8008990:	7013      	strb	r3, [r2, #0]
 8008992:	f003 fdcf 	bl	800c534 <UpdateXposiTime>
 8008996:	7d33      	ldrb	r3, [r6, #20]
 8008998:	f44f 728c 	mov.w	r2, #280	; 0x118
 800899c:	2137      	movs	r1, #55	; 0x37
 800899e:	2029      	movs	r0, #41	; 0x29
 80089a0:	f001 fd08 	bl	800a3b4 <ShowScaleRuleTime>
 80089a4:	e019      	b.n	80089da <main+0x5c2>
 80089a6:	2a01      	cmp	r2, #1
 80089a8:	f8df 9088 	ldr.w	r9, [pc, #136]	; 8008a34 <main+0x61c>
 80089ac:	d160      	bne.n	8008a70 <main+0x658>
 80089ae:	482b      	ldr	r0, [pc, #172]	; (8008a5c <main+0x644>)
 80089b0:	f04f 0b0a 	mov.w	fp, #10
 80089b4:	4682      	mov	sl, r0
 80089b6:	8af2      	ldrh	r2, [r6, #22]
 80089b8:	f8b9 3016 	ldrh.w	r3, [r9, #22]
 80089bc:	8ac1      	ldrh	r1, [r0, #22]
 80089be:	1ad3      	subs	r3, r2, r3
 80089c0:	428b      	cmp	r3, r1
 80089c2:	bfac      	ite	ge
 80089c4:	82f3      	strhge	r3, [r6, #22]
 80089c6:	82f1      	strhlt	r1, [r6, #22]
 80089c8:	4928      	ldr	r1, [pc, #160]	; (8008a6c <main+0x654>)
 80089ca:	2006      	movs	r0, #6
 80089cc:	f7f7 fb98 	bl	8000100 <__Bios>
 80089d0:	43c0      	mvns	r0, r0
 80089d2:	f000 000f 	and.w	r0, r0, #15
 80089d6:	2808      	cmp	r0, #8
 80089d8:	d010      	beq.n	80089fc <main+0x5e4>
 80089da:	78a3      	ldrb	r3, [r4, #2]
 80089dc:	2b04      	cmp	r3, #4
 80089de:	d103      	bne.n	80089e8 <main+0x5d0>
 80089e0:	f896 0050 	ldrb.w	r0, [r6, #80]	; 0x50
 80089e4:	f004 fb58 	bl	800d098 <PIO_Init>
 80089e8:	f894 9002 	ldrb.w	r9, [r4, #2]
 80089ec:	f1b9 0f00 	cmp.w	r9, #0
 80089f0:	f47f ad6e 	bne.w	80084d0 <main+0xb8>
 80089f4:	7830      	ldrb	r0, [r6, #0]
 80089f6:	f003 fcd1 	bl	800c39c <DefaultTir>
 80089fa:	e5a8      	b.n	800854e <main+0x136>
 80089fc:	78a0      	ldrb	r0, [r4, #2]
 80089fe:	5c2b      	ldrb	r3, [r5, r0]
 8008a00:	fb0b 3300 	mla	r3, fp, r0, r3
 8008a04:	f836 2013 	ldrh.w	r2, [r6, r3, lsl #1]
 8008a08:	f839 c013 	ldrh.w	ip, [r9, r3, lsl #1]
 8008a0c:	f83a 1013 	ldrh.w	r1, [sl, r3, lsl #1]
 8008a10:	eba2 020c 	sub.w	r2, r2, ip
 8008a14:	428a      	cmp	r2, r1
 8008a16:	bfac      	ite	ge
 8008a18:	f826 2013 	strhge.w	r2, [r6, r3, lsl #1]
 8008a1c:	f826 1013 	strhlt.w	r1, [r6, r3, lsl #1]
 8008a20:	f002 feb8 	bl	800b794 <ShowPopItem>
 8008a24:	e7d0      	b.n	80089c8 <main+0x5b0>
 8008a26:	bf00      	nop
 8008a28:	2000000c 	.word	0x2000000c
 8008a2c:	200000d8 	.word	0x200000d8
 8008a30:	080133a8 	.word	0x080133a8
 8008a34:	0801360a 	.word	0x0801360a
 8008a38:	20000af3 	.word	0x20000af3
 8008a3c:	200009da 	.word	0x200009da
 8008a40:	08012d18 	.word	0x08012d18
 8008a44:	200009ce 	.word	0x200009ce
 8008a48:	20004c20 	.word	0x20004c20
 8008a4c:	20004c0f 	.word	0x20004c0f
 8008a50:	20004c0c 	.word	0x20004c0c
 8008a54:	2000024b 	.word	0x2000024b
 8008a58:	20000240 	.word	0x20000240
 8008a5c:	08012c8c 	.word	0x08012c8c
 8008a60:	20004c38 	.word	0x20004c38
 8008a64:	08012e74 	.word	0x08012e74
 8008a68:	08012e70 	.word	0x08012e70
 8008a6c:	fffc0000 	.word	0xfffc0000
 8008a70:	2a02      	cmp	r2, #2
 8008a72:	d141      	bne.n	8008af8 <main+0x6e0>
 8008a74:	f04f 0b0a 	mov.w	fp, #10
 8008a78:	8b32      	ldrh	r2, [r6, #24]
 8008a7a:	f8b9 3018 	ldrh.w	r3, [r9, #24]
 8008a7e:	8af1      	ldrh	r1, [r6, #22]
 8008a80:	1ad3      	subs	r3, r2, r3
 8008a82:	428b      	cmp	r3, r1
 8008a84:	f8df a2d0 	ldr.w	sl, [pc, #720]	; 8008d58 <main+0x940>
 8008a88:	bfac      	ite	ge
 8008a8a:	8333      	strhge	r3, [r6, #24]
 8008a8c:	8331      	strhlt	r1, [r6, #24]
 8008a8e:	4651      	mov	r1, sl
 8008a90:	2006      	movs	r0, #6
 8008a92:	f7f7 fb35 	bl	8000100 <__Bios>
 8008a96:	43c0      	mvns	r0, r0
 8008a98:	f000 000f 	and.w	r0, r0, #15
 8008a9c:	2808      	cmp	r0, #8
 8008a9e:	d19c      	bne.n	80089da <main+0x5c2>
 8008aa0:	78a0      	ldrb	r0, [r4, #2]
 8008aa2:	8af1      	ldrh	r1, [r6, #22]
 8008aa4:	5c2b      	ldrb	r3, [r5, r0]
 8008aa6:	fb0b 3300 	mla	r3, fp, r0, r3
 8008aaa:	f836 2013 	ldrh.w	r2, [r6, r3, lsl #1]
 8008aae:	f839 c013 	ldrh.w	ip, [r9, r3, lsl #1]
 8008ab2:	eba2 020c 	sub.w	r2, r2, ip
 8008ab6:	428a      	cmp	r2, r1
 8008ab8:	bfac      	ite	ge
 8008aba:	f826 2013 	strhge.w	r2, [r6, r3, lsl #1]
 8008abe:	f826 1013 	strhlt.w	r1, [r6, r3, lsl #1]
 8008ac2:	f002 fe67 	bl	800b794 <ShowPopItem>
 8008ac6:	e7e2      	b.n	8008a8e <main+0x676>
 8008ac8:	2b02      	cmp	r3, #2
 8008aca:	d115      	bne.n	8008af8 <main+0x6e0>
 8008acc:	78aa      	ldrb	r2, [r5, #2]
 8008ace:	1e51      	subs	r1, r2, #1
 8008ad0:	2901      	cmp	r1, #1
 8008ad2:	d811      	bhi.n	8008af8 <main+0x6e0>
 8008ad4:	f102 0314 	add.w	r3, r2, #20
 8008ad8:	4992      	ldr	r1, [pc, #584]	; (8008d24 <main+0x90c>)
 8008ada:	f836 2013 	ldrh.w	r2, [r6, r3, lsl #1]
 8008ade:	f831 0013 	ldrh.w	r0, [r1, r3, lsl #1]
 8008ae2:	b2d1      	uxtb	r1, r2
 8008ae4:	4288      	cmp	r0, r1
 8008ae6:	f4bf af7f 	bcs.w	80089e8 <main+0x5d0>
 8008aea:	498f      	ldr	r1, [pc, #572]	; (8008d28 <main+0x910>)
 8008aec:	f831 1013 	ldrh.w	r1, [r1, r3, lsl #1]
 8008af0:	1a52      	subs	r2, r2, r1
 8008af2:	f826 2013 	strh.w	r2, [r6, r3, lsl #1]
 8008af6:	e770      	b.n	80089da <main+0x5c2>
 8008af8:	210a      	movs	r1, #10
 8008afa:	5cea      	ldrb	r2, [r5, r3]
 8008afc:	fb01 2303 	mla	r3, r1, r3, r2
 8008b00:	4989      	ldr	r1, [pc, #548]	; (8008d28 <main+0x910>)
 8008b02:	f836 2013 	ldrh.w	r2, [r6, r3, lsl #1]
 8008b06:	f831 0013 	ldrh.w	r0, [r1, r3, lsl #1]
 8008b0a:	4986      	ldr	r1, [pc, #536]	; (8008d24 <main+0x90c>)
 8008b0c:	1a12      	subs	r2, r2, r0
 8008b0e:	f831 1013 	ldrh.w	r1, [r1, r3, lsl #1]
 8008b12:	428a      	cmp	r2, r1
 8008b14:	daed      	bge.n	8008af2 <main+0x6da>
 8008b16:	f826 1013 	strh.w	r1, [r6, r3, lsl #1]
 8008b1a:	e75e      	b.n	80089da <main+0x5c2>
 8008b1c:	4b83      	ldr	r3, [pc, #524]	; (8008d2c <main+0x914>)
 8008b1e:	781b      	ldrb	r3, [r3, #0]
 8008b20:	2b00      	cmp	r3, #0
 8008b22:	f43f ad14 	beq.w	800854e <main+0x136>
 8008b26:	78a3      	ldrb	r3, [r4, #2]
 8008b28:	b9b3      	cbnz	r3, 8008b58 <main+0x740>
 8008b2a:	f895 9000 	ldrb.w	r9, [r5]
 8008b2e:	f1b9 0f00 	cmp.w	r9, #0
 8008b32:	f47f accd 	bne.w	80084d0 <main+0xb8>
 8008b36:	4b7e      	ldr	r3, [pc, #504]	; (8008d30 <main+0x918>)
 8008b38:	881a      	ldrh	r2, [r3, #0]
 8008b3a:	4b7e      	ldr	r3, [pc, #504]	; (8008d34 <main+0x91c>)
 8008b3c:	5c98      	ldrb	r0, [r3, r2]
 8008b3e:	4b7e      	ldr	r3, [pc, #504]	; (8008d38 <main+0x920>)
 8008b40:	00d2      	lsls	r2, r2, #3
 8008b42:	1899      	adds	r1, r3, r2
 8008b44:	5c0e      	ldrb	r6, [r1, r0]
 8008b46:	497d      	ldr	r1, [pc, #500]	; (8008d3c <main+0x924>)
 8008b48:	4411      	add	r1, r2
 8008b4a:	5c09      	ldrb	r1, [r1, r0]
 8008b4c:	42b1      	cmp	r1, r6
 8008b4e:	f4bf acfe 	bcs.w	800854e <main+0x136>
 8008b52:	4413      	add	r3, r2
 8008b54:	1e72      	subs	r2, r6, #1
 8008b56:	e6fc      	b.n	8008952 <main+0x53a>
 8008b58:	2b04      	cmp	r3, #4
 8008b5a:	f47f acf8 	bne.w	800854e <main+0x136>
 8008b5e:	4b74      	ldr	r3, [pc, #464]	; (8008d30 <main+0x918>)
 8008b60:	4977      	ldr	r1, [pc, #476]	; (8008d40 <main+0x928>)
 8008b62:	f8b3 2050 	ldrh.w	r2, [r3, #80]	; 0x50
 8008b66:	792b      	ldrb	r3, [r5, #4]
 8008b68:	eb01 0183 	add.w	r1, r1, r3, lsl #2
 8008b6c:	4b75      	ldr	r3, [pc, #468]	; (8008d44 <main+0x92c>)
 8008b6e:	5c89      	ldrb	r1, [r1, r2]
 8008b70:	00d2      	lsls	r2, r2, #3
 8008b72:	1898      	adds	r0, r3, r2
 8008b74:	5c46      	ldrb	r6, [r0, r1]
 8008b76:	4874      	ldr	r0, [pc, #464]	; (8008d48 <main+0x930>)
 8008b78:	4410      	add	r0, r2
 8008b7a:	5c40      	ldrb	r0, [r0, r1]
 8008b7c:	42b0      	cmp	r0, r6
 8008b7e:	f4bf ace6 	bcs.w	800854e <main+0x136>
 8008b82:	4413      	add	r3, r2
 8008b84:	1e72      	subs	r2, r6, #1
 8008b86:	545a      	strb	r2, [r3, r1]
 8008b88:	e4e1      	b.n	800854e <main+0x136>
 8008b8a:	7823      	ldrb	r3, [r4, #0]
 8008b8c:	b13b      	cbz	r3, 8008b9e <main+0x786>
 8008b8e:	78a3      	ldrb	r3, [r4, #2]
 8008b90:	7862      	ldrb	r2, [r4, #1]
 8008b92:	429a      	cmp	r2, r3
 8008b94:	f67f ac9c 	bls.w	80084d0 <main+0xb8>
 8008b98:	3301      	adds	r3, #1
 8008b9a:	70a3      	strb	r3, [r4, #2]
 8008b9c:	e498      	b.n	80084d0 <main+0xb8>
 8008b9e:	4b6b      	ldr	r3, [pc, #428]	; (8008d4c <main+0x934>)
 8008ba0:	f893 9000 	ldrb.w	r9, [r3]
 8008ba4:	f1b9 0f00 	cmp.w	r9, #0
 8008ba8:	f000 808d 	beq.w	8008cc6 <main+0x8ae>
 8008bac:	78a3      	ldrb	r3, [r4, #2]
 8008bae:	4e60      	ldr	r6, [pc, #384]	; (8008d30 <main+0x918>)
 8008bb0:	2b01      	cmp	r3, #1
 8008bb2:	d161      	bne.n	8008c78 <main+0x860>
 8008bb4:	786a      	ldrb	r2, [r5, #1]
 8008bb6:	2a03      	cmp	r2, #3
 8008bb8:	d103      	bne.n	8008bc2 <main+0x7aa>
 8008bba:	2201      	movs	r2, #1
 8008bbc:	4b64      	ldr	r3, [pc, #400]	; (8008d50 <main+0x938>)
 8008bbe:	701a      	strb	r2, [r3, #0]
 8008bc0:	e6e7      	b.n	8008992 <main+0x57a>
 8008bc2:	2a01      	cmp	r2, #1
 8008bc4:	f8df 9160 	ldr.w	r9, [pc, #352]	; 8008d28 <main+0x910>
 8008bc8:	d129      	bne.n	8008c1e <main+0x806>
 8008bca:	f04f 0b0a 	mov.w	fp, #10
 8008bce:	8af2      	ldrh	r2, [r6, #22]
 8008bd0:	f8b9 3016 	ldrh.w	r3, [r9, #22]
 8008bd4:	8b31      	ldrh	r1, [r6, #24]
 8008bd6:	4413      	add	r3, r2
 8008bd8:	428b      	cmp	r3, r1
 8008bda:	f8df a17c 	ldr.w	sl, [pc, #380]	; 8008d58 <main+0x940>
 8008bde:	bfb4      	ite	lt
 8008be0:	82f3      	strhlt	r3, [r6, #22]
 8008be2:	82f1      	strhge	r1, [r6, #22]
 8008be4:	4651      	mov	r1, sl
 8008be6:	2006      	movs	r0, #6
 8008be8:	f7f7 fa8a 	bl	8000100 <__Bios>
 8008bec:	43c0      	mvns	r0, r0
 8008bee:	f000 000f 	and.w	r0, r0, #15
 8008bf2:	2808      	cmp	r0, #8
 8008bf4:	f47f aef1 	bne.w	80089da <main+0x5c2>
 8008bf8:	78a0      	ldrb	r0, [r4, #2]
 8008bfa:	8b31      	ldrh	r1, [r6, #24]
 8008bfc:	5c2b      	ldrb	r3, [r5, r0]
 8008bfe:	fb0b 3300 	mla	r3, fp, r0, r3
 8008c02:	f836 2013 	ldrh.w	r2, [r6, r3, lsl #1]
 8008c06:	f839 c013 	ldrh.w	ip, [r9, r3, lsl #1]
 8008c0a:	4462      	add	r2, ip
 8008c0c:	428a      	cmp	r2, r1
 8008c0e:	bfb4      	ite	lt
 8008c10:	f826 2013 	strhlt.w	r2, [r6, r3, lsl #1]
 8008c14:	f826 1013 	strhge.w	r1, [r6, r3, lsl #1]
 8008c18:	f002 fdbc 	bl	800b794 <ShowPopItem>
 8008c1c:	e7e2      	b.n	8008be4 <main+0x7cc>
 8008c1e:	2a02      	cmp	r2, #2
 8008c20:	d140      	bne.n	8008ca4 <main+0x88c>
 8008c22:	484c      	ldr	r0, [pc, #304]	; (8008d54 <main+0x93c>)
 8008c24:	f04f 0b0a 	mov.w	fp, #10
 8008c28:	4682      	mov	sl, r0
 8008c2a:	8b32      	ldrh	r2, [r6, #24]
 8008c2c:	f8b9 3018 	ldrh.w	r3, [r9, #24]
 8008c30:	8b01      	ldrh	r1, [r0, #24]
 8008c32:	4413      	add	r3, r2
 8008c34:	428b      	cmp	r3, r1
 8008c36:	bfb4      	ite	lt
 8008c38:	8333      	strhlt	r3, [r6, #24]
 8008c3a:	8331      	strhge	r1, [r6, #24]
 8008c3c:	4946      	ldr	r1, [pc, #280]	; (8008d58 <main+0x940>)
 8008c3e:	2006      	movs	r0, #6
 8008c40:	f7f7 fa5e 	bl	8000100 <__Bios>
 8008c44:	43c0      	mvns	r0, r0
 8008c46:	f000 000f 	and.w	r0, r0, #15
 8008c4a:	2808      	cmp	r0, #8
 8008c4c:	f47f aec5 	bne.w	80089da <main+0x5c2>
 8008c50:	78a0      	ldrb	r0, [r4, #2]
 8008c52:	5c2b      	ldrb	r3, [r5, r0]
 8008c54:	fb0b 3300 	mla	r3, fp, r0, r3
 8008c58:	f836 2013 	ldrh.w	r2, [r6, r3, lsl #1]
 8008c5c:	f839 c013 	ldrh.w	ip, [r9, r3, lsl #1]
 8008c60:	f83a 1013 	ldrh.w	r1, [sl, r3, lsl #1]
 8008c64:	4462      	add	r2, ip
 8008c66:	428a      	cmp	r2, r1
 8008c68:	bfb4      	ite	lt
 8008c6a:	f826 2013 	strhlt.w	r2, [r6, r3, lsl #1]
 8008c6e:	f826 1013 	strhge.w	r1, [r6, r3, lsl #1]
 8008c72:	f002 fd8f 	bl	800b794 <ShowPopItem>
 8008c76:	e7e1      	b.n	8008c3c <main+0x824>
 8008c78:	2b02      	cmp	r3, #2
 8008c7a:	d113      	bne.n	8008ca4 <main+0x88c>
 8008c7c:	78aa      	ldrb	r2, [r5, #2]
 8008c7e:	1e51      	subs	r1, r2, #1
 8008c80:	2901      	cmp	r1, #1
 8008c82:	d80f      	bhi.n	8008ca4 <main+0x88c>
 8008c84:	f102 0314 	add.w	r3, r2, #20
 8008c88:	4932      	ldr	r1, [pc, #200]	; (8008d54 <main+0x93c>)
 8008c8a:	f836 2013 	ldrh.w	r2, [r6, r3, lsl #1]
 8008c8e:	f831 0013 	ldrh.w	r0, [r1, r3, lsl #1]
 8008c92:	b2d1      	uxtb	r1, r2
 8008c94:	4288      	cmp	r0, r1
 8008c96:	f67f aea7 	bls.w	80089e8 <main+0x5d0>
 8008c9a:	4923      	ldr	r1, [pc, #140]	; (8008d28 <main+0x910>)
 8008c9c:	f831 1013 	ldrh.w	r1, [r1, r3, lsl #1]
 8008ca0:	440a      	add	r2, r1
 8008ca2:	e726      	b.n	8008af2 <main+0x6da>
 8008ca4:	210a      	movs	r1, #10
 8008ca6:	5cea      	ldrb	r2, [r5, r3]
 8008ca8:	fb01 2303 	mla	r3, r1, r3, r2
 8008cac:	491e      	ldr	r1, [pc, #120]	; (8008d28 <main+0x910>)
 8008cae:	f836 2013 	ldrh.w	r2, [r6, r3, lsl #1]
 8008cb2:	f831 0013 	ldrh.w	r0, [r1, r3, lsl #1]
 8008cb6:	4927      	ldr	r1, [pc, #156]	; (8008d54 <main+0x93c>)
 8008cb8:	4402      	add	r2, r0
 8008cba:	f831 1013 	ldrh.w	r1, [r1, r3, lsl #1]
 8008cbe:	428a      	cmp	r2, r1
 8008cc0:	f6bf af29 	bge.w	8008b16 <main+0x6fe>
 8008cc4:	e715      	b.n	8008af2 <main+0x6da>
 8008cc6:	4b19      	ldr	r3, [pc, #100]	; (8008d2c <main+0x914>)
 8008cc8:	781b      	ldrb	r3, [r3, #0]
 8008cca:	2b00      	cmp	r3, #0
 8008ccc:	f43f ac3f 	beq.w	800854e <main+0x136>
 8008cd0:	78a3      	ldrb	r3, [r4, #2]
 8008cd2:	b9b3      	cbnz	r3, 8008d02 <main+0x8ea>
 8008cd4:	f895 9000 	ldrb.w	r9, [r5]
 8008cd8:	f1b9 0f00 	cmp.w	r9, #0
 8008cdc:	f47f abf8 	bne.w	80084d0 <main+0xb8>
 8008ce0:	4b13      	ldr	r3, [pc, #76]	; (8008d30 <main+0x918>)
 8008ce2:	4a14      	ldr	r2, [pc, #80]	; (8008d34 <main+0x91c>)
 8008ce4:	881b      	ldrh	r3, [r3, #0]
 8008ce6:	4e1d      	ldr	r6, [pc, #116]	; (8008d5c <main+0x944>)
 8008ce8:	5cd0      	ldrb	r0, [r2, r3]
 8008cea:	4a13      	ldr	r2, [pc, #76]	; (8008d38 <main+0x920>)
 8008cec:	00db      	lsls	r3, r3, #3
 8008cee:	441a      	add	r2, r3
 8008cf0:	5c11      	ldrb	r1, [r2, r0]
 8008cf2:	4433      	add	r3, r6
 8008cf4:	5c1b      	ldrb	r3, [r3, r0]
 8008cf6:	428b      	cmp	r3, r1
 8008cf8:	f67f ac29 	bls.w	800854e <main+0x136>
 8008cfc:	3101      	adds	r1, #1
 8008cfe:	5411      	strb	r1, [r2, r0]
 8008d00:	e425      	b.n	800854e <main+0x136>
 8008d02:	2b04      	cmp	r3, #4
 8008d04:	f47f ac23 	bne.w	800854e <main+0x136>
 8008d08:	4b09      	ldr	r3, [pc, #36]	; (8008d30 <main+0x918>)
 8008d0a:	7929      	ldrb	r1, [r5, #4]
 8008d0c:	4a0c      	ldr	r2, [pc, #48]	; (8008d40 <main+0x928>)
 8008d0e:	f8b3 3050 	ldrh.w	r3, [r3, #80]	; 0x50
 8008d12:	eb02 0281 	add.w	r2, r2, r1, lsl #2
 8008d16:	5cd0      	ldrb	r0, [r2, r3]
 8008d18:	4a0a      	ldr	r2, [pc, #40]	; (8008d44 <main+0x92c>)
 8008d1a:	00db      	lsls	r3, r3, #3
 8008d1c:	441a      	add	r2, r3
 8008d1e:	5c11      	ldrb	r1, [r2, r0]
 8008d20:	4e0f      	ldr	r6, [pc, #60]	; (8008d60 <main+0x948>)
 8008d22:	e7e6      	b.n	8008cf2 <main+0x8da>
 8008d24:	08012c8c 	.word	0x08012c8c
 8008d28:	0801360a 	.word	0x0801360a
 8008d2c:	20004c0c 	.word	0x20004c0c
 8008d30:	2000000c 	.word	0x2000000c
 8008d34:	20000240 	.word	0x20000240
 8008d38:	20000098 	.word	0x20000098
 8008d3c:	08012c0c 	.word	0x08012c0c
 8008d40:	2000024b 	.word	0x2000024b
 8008d44:	200000b8 	.word	0x200000b8
 8008d48:	08012c4c 	.word	0x08012c4c
 8008d4c:	20004c0f 	.word	0x20004c0f
 8008d50:	20004c20 	.word	0x20004c20
 8008d54:	08012d18 	.word	0x08012d18
 8008d58:	fffc0000 	.word	0xfffc0000
 8008d5c:	08012c2c 	.word	0x08012c2c
 8008d60:	08012c6c 	.word	0x08012c6c

08008d64 <DrawTriangle.part.1>:
 8008d64:	e92d 41f0 	stmdb	sp!, {r4, r5, r6, r7, r8, lr}
 8008d68:	461f      	mov	r7, r3
 8008d6a:	4614      	mov	r4, r2
 8008d6c:	eb01 0802 	add.w	r8, r1, r2
 8008d70:	b90c      	cbnz	r4, 8008d76 <DrawTriangle.part.1+0x12>
 8008d72:	e8bd 81f0 	ldmia.w	sp!, {r4, r5, r6, r7, r8, pc}
 8008d76:	eba8 0104 	sub.w	r1, r8, r4
 8008d7a:	b289      	uxth	r1, r1
 8008d7c:	1c45      	adds	r5, r0, #1
 8008d7e:	2600      	movs	r6, #0
 8008d80:	f002 fed8 	bl	800bb34 <Set_Posi>
 8008d84:	b2ad      	uxth	r5, r5
 8008d86:	b2b3      	uxth	r3, r6
 8008d88:	429c      	cmp	r4, r3
 8008d8a:	d803      	bhi.n	8008d94 <DrawTriangle.part.1+0x30>
 8008d8c:	3c02      	subs	r4, #2
 8008d8e:	b2a4      	uxth	r4, r4
 8008d90:	4628      	mov	r0, r5
 8008d92:	e7ed      	b.n	8008d70 <DrawTriangle.part.1+0xc>
 8008d94:	4638      	mov	r0, r7
 8008d96:	f002 fed9 	bl	800bb4c <Set_Pixel>
 8008d9a:	3601      	adds	r6, #1
 8008d9c:	e7f3      	b.n	8008d86 <DrawTriangle.part.1+0x22>

08008d9e <DrawTriCol.part.3>:
 8008d9e:	e92d 47f0 	stmdb	sp!, {r4, r5, r6, r7, r8, r9, sl, lr}
 8008da2:	461f      	mov	r7, r3
 8008da4:	4614      	mov	r4, r2
 8008da6:	f8bd 8020 	ldrh.w	r8, [sp, #32]
 8008daa:	eb01 0902 	add.w	r9, r1, r2
 8008dae:	f100 0a03 	add.w	sl, r0, #3
 8008db2:	b90c      	cbnz	r4, 8008db8 <DrawTriCol.part.3+0x1a>
 8008db4:	e8bd 87f0 	ldmia.w	sp!, {r4, r5, r6, r7, r8, r9, sl, pc}
 8008db8:	eba9 0104 	sub.w	r1, r9, r4
 8008dbc:	b289      	uxth	r1, r1
 8008dbe:	1c45      	adds	r5, r0, #1
 8008dc0:	2600      	movs	r6, #0
 8008dc2:	f002 feb7 	bl	800bb34 <Set_Posi>
 8008dc6:	b2ad      	uxth	r5, r5
 8008dc8:	b2b3      	uxth	r3, r6
 8008dca:	429c      	cmp	r4, r3
 8008dcc:	d803      	bhi.n	8008dd6 <DrawTriCol.part.3+0x38>
 8008dce:	3c02      	subs	r4, #2
 8008dd0:	b2a4      	uxth	r4, r4
 8008dd2:	4628      	mov	r0, r5
 8008dd4:	e7ed      	b.n	8008db2 <DrawTriCol.part.3+0x14>
 8008dd6:	45aa      	cmp	sl, r5
 8008dd8:	bfac      	ite	ge
 8008dda:	4638      	movge	r0, r7
 8008ddc:	4640      	movlt	r0, r8
 8008dde:	f002 feb5 	bl	800bb4c <Set_Pixel>
 8008de2:	3601      	adds	r6, #1
 8008de4:	e7f0      	b.n	8008dc8 <DrawTriCol.part.3+0x2a>

08008de6 <DrawTriggerIco>:
 8008de6:	e92d 41f3 	stmdb	sp!, {r0, r1, r4, r5, r6, r7, r8, lr}
 8008dea:	4e38      	ldr	r6, [pc, #224]	; (8008ecc <DrawTriggerIco+0xe6>)
 8008dec:	24d0      	movs	r4, #208	; 0xd0
 8008dee:	2500      	movs	r5, #0
 8008df0:	4637      	mov	r7, r6
 8008df2:	f8df 8100 	ldr.w	r8, [pc, #256]	; 8008ef4 <DrawTriggerIco+0x10e>
 8008df6:	f647 30ef 	movw	r0, #31727	; 0x7bef
 8008dfa:	2100      	movs	r1, #0
 8008dfc:	f003 f93b 	bl	800c076 <Set_Color>
 8008e00:	8db3      	ldrh	r3, [r6, #44]	; 0x2c
 8008e02:	0a1b      	lsrs	r3, r3, #8
 8008e04:	412b      	asrs	r3, r5
 8008e06:	07d8      	lsls	r0, r3, #31
 8008e08:	d50f      	bpl.n	8008e2a <DrawTriggerIco+0x44>
 8008e0a:	4b31      	ldr	r3, [pc, #196]	; (8008ed0 <DrawTriggerIco+0xea>)
 8008e0c:	2220      	movs	r2, #32
 8008e0e:	9300      	str	r3, [sp, #0]
 8008e10:	2301      	movs	r3, #1
 8008e12:	4621      	mov	r1, r4
 8008e14:	2012      	movs	r0, #18
 8008e16:	f003 f935 	bl	800c084 <Show_Str6x8>
 8008e1a:	3501      	adds	r5, #1
 8008e1c:	3c19      	subs	r4, #25
 8008e1e:	2d04      	cmp	r5, #4
 8008e20:	b2a4      	uxth	r4, r4
 8008e22:	d1e8      	bne.n	8008df6 <DrawTriggerIco+0x10>
 8008e24:	b002      	add	sp, #8
 8008e26:	e8bd 81f0 	ldmia.w	sp!, {r4, r5, r6, r7, r8, pc}
 8008e2a:	8d33      	ldrh	r3, [r6, #40]	; 0x28
 8008e2c:	1e5a      	subs	r2, r3, #1
 8008e2e:	2a06      	cmp	r2, #6
 8008e30:	d8f3      	bhi.n	8008e1a <DrawTriggerIco+0x34>
 8008e32:	e8df f002 	tbb	[pc, r2]
 8008e36:	0909      	.short	0x0909
 8008e38:	36222204 	.word	0x36222204
 8008e3c:	36          	.byte	0x36
 8008e3d:	00          	.byte	0x00
 8008e3e:	4b25      	ldr	r3, [pc, #148]	; (8008ed4 <DrawTriggerIco+0xee>)
 8008e40:	2200      	movs	r2, #0
 8008e42:	9300      	str	r3, [sp, #0]
 8008e44:	2301      	movs	r3, #1
 8008e46:	e7e4      	b.n	8008e12 <DrawTriggerIco+0x2c>
 8008e48:	4a23      	ldr	r2, [pc, #140]	; (8008ed8 <DrawTriggerIco+0xf2>)
 8008e4a:	4621      	mov	r1, r4
 8008e4c:	2b02      	cmp	r3, #2
 8008e4e:	bf0c      	ite	eq
 8008e50:	4643      	moveq	r3, r8
 8008e52:	4613      	movne	r3, r2
 8008e54:	2012      	movs	r0, #18
 8008e56:	9300      	str	r3, [sp, #0]
 8008e58:	2220      	movs	r2, #32
 8008e5a:	2301      	movs	r3, #1
 8008e5c:	f003 f912 	bl	800c084 <Show_Str6x8>
 8008e60:	8d7b      	ldrh	r3, [r7, #42]	; 0x2a
 8008e62:	0a1b      	lsrs	r3, r3, #8
 8008e64:	412b      	asrs	r3, r5
 8008e66:	07d9      	lsls	r1, r3, #31
 8008e68:	bf4c      	ite	mi
 8008e6a:	4b1c      	ldrmi	r3, [pc, #112]	; (8008edc <DrawTriggerIco+0xf6>)
 8008e6c:	4b1c      	ldrpl	r3, [pc, #112]	; (8008ee0 <DrawTriggerIco+0xfa>)
 8008e6e:	9300      	str	r3, [sp, #0]
 8008e70:	2220      	movs	r2, #32
 8008e72:	2301      	movs	r3, #1
 8008e74:	4621      	mov	r1, r4
 8008e76:	2018      	movs	r0, #24
 8008e78:	e7cd      	b.n	8008e16 <DrawTriggerIco+0x30>
 8008e7a:	4a17      	ldr	r2, [pc, #92]	; (8008ed8 <DrawTriggerIco+0xf2>)
 8008e7c:	4621      	mov	r1, r4
 8008e7e:	2b05      	cmp	r3, #5
 8008e80:	bf0c      	ite	eq
 8008e82:	4643      	moveq	r3, r8
 8008e84:	4613      	movne	r3, r2
 8008e86:	2012      	movs	r0, #18
 8008e88:	9300      	str	r3, [sp, #0]
 8008e8a:	2220      	movs	r2, #32
 8008e8c:	2301      	movs	r3, #1
 8008e8e:	f003 f8f9 	bl	800c084 <Show_Str6x8>
 8008e92:	8d7b      	ldrh	r3, [r7, #42]	; 0x2a
 8008e94:	0a1b      	lsrs	r3, r3, #8
 8008e96:	412b      	asrs	r3, r5
 8008e98:	07da      	lsls	r2, r3, #31
 8008e9a:	bf4c      	ite	mi
 8008e9c:	4b11      	ldrmi	r3, [pc, #68]	; (8008ee4 <DrawTriggerIco+0xfe>)
 8008e9e:	4b12      	ldrpl	r3, [pc, #72]	; (8008ee8 <DrawTriggerIco+0x102>)
 8008ea0:	e7e5      	b.n	8008e6e <DrawTriggerIco+0x88>
 8008ea2:	4a0d      	ldr	r2, [pc, #52]	; (8008ed8 <DrawTriggerIco+0xf2>)
 8008ea4:	4621      	mov	r1, r4
 8008ea6:	2b07      	cmp	r3, #7
 8008ea8:	bf0c      	ite	eq
 8008eaa:	4643      	moveq	r3, r8
 8008eac:	4613      	movne	r3, r2
 8008eae:	2012      	movs	r0, #18
 8008eb0:	9300      	str	r3, [sp, #0]
 8008eb2:	2220      	movs	r2, #32
 8008eb4:	2301      	movs	r3, #1
 8008eb6:	f003 f8e5 	bl	800c084 <Show_Str6x8>
 8008eba:	8d7b      	ldrh	r3, [r7, #42]	; 0x2a
 8008ebc:	0a1b      	lsrs	r3, r3, #8
 8008ebe:	412b      	asrs	r3, r5
 8008ec0:	07db      	lsls	r3, r3, #31
 8008ec2:	bf4c      	ite	mi
 8008ec4:	4b09      	ldrmi	r3, [pc, #36]	; (8008eec <DrawTriggerIco+0x106>)
 8008ec6:	4b0a      	ldrpl	r3, [pc, #40]	; (8008ef0 <DrawTriggerIco+0x10a>)
 8008ec8:	e7d1      	b.n	8008e6e <DrawTriggerIco+0x88>
 8008eca:	bf00      	nop
 8008ecc:	2000000c 	.word	0x2000000c
 8008ed0:	08013826 	.word	0x08013826
 8008ed4:	0801382a 	.word	0x0801382a
 8008ed8:	08013824 	.word	0x08013824
 8008edc:	0801382e 	.word	0x0801382e
 8008ee0:	08013831 	.word	0x08013831
 8008ee4:	08013834 	.word	0x08013834
 8008ee8:	08013837 	.word	0x08013837
 8008eec:	0801467e 	.word	0x0801467e
 8008ef0:	0801383a 	.word	0x0801383a
 8008ef4:	08013822 	.word	0x08013822

08008ef8 <ShowSubPopStr>:
 8008ef8:	e92d 4ff0 	stmdb	sp!, {r4, r5, r6, r7, r8, r9, sl, fp, lr}
 8008efc:	468b      	mov	fp, r1
 8008efe:	2700      	movs	r7, #0
 8008f00:	b089      	sub	sp, #36	; 0x24
 8008f02:	f89d 1058 	ldrb.w	r1, [sp, #88]	; 0x58
 8008f06:	9304      	str	r3, [sp, #16]
 8008f08:	f89d 3050 	ldrb.w	r3, [sp, #80]	; 0x50
 8008f0c:	f100 0806 	add.w	r8, r0, #6
 8008f10:	4692      	mov	sl, r2
 8008f12:	1e4a      	subs	r2, r1, #1
 8008f14:	9305      	str	r3, [sp, #20]
 8008f16:	fa1f f888 	uxth.w	r8, r8
 8008f1a:	f89d 3054 	ldrb.w	r3, [sp, #84]	; 0x54
 8008f1e:	eb02 0242 	add.w	r2, r2, r2, lsl #1
 8008f22:	eb08 0242 	add.w	r2, r8, r2, lsl #1
 8008f26:	9306      	str	r3, [sp, #24]
 8008f28:	b293      	uxth	r3, r2
 8008f2a:	9302      	str	r3, [sp, #8]
 8008f2c:	f89d 305c 	ldrb.w	r3, [sp, #92]	; 0x5c
 8008f30:	eb01 0541 	add.w	r5, r1, r1, lsl #1
 8008f34:	3b01      	subs	r3, #1
 8008f36:	440b      	add	r3, r1
 8008f38:	eb00 0545 	add.w	r5, r0, r5, lsl #1
 8008f3c:	eb03 0343 	add.w	r3, r3, r3, lsl #1
 8008f40:	300c      	adds	r0, #12
 8008f42:	eb00 0343 	add.w	r3, r0, r3, lsl #1
 8008f46:	b29b      	uxth	r3, r3
 8008f48:	9303      	str	r3, [sp, #12]
 8008f4a:	f10b 0313 	add.w	r3, fp, #19
 8008f4e:	3506      	adds	r5, #6
 8008f50:	b29b      	uxth	r3, r3
 8008f52:	4e69      	ldr	r6, [pc, #420]	; (80090f8 <ShowSubPopStr+0x200>)
 8008f54:	b2ad      	uxth	r5, r5
 8008f56:	9307      	str	r3, [sp, #28]
 8008f58:	b2fa      	uxtb	r2, r7
 8008f5a:	f1ba 0f00 	cmp.w	sl, #0
 8008f5e:	d172      	bne.n	8009046 <ShowSubPopStr+0x14e>
 8008f60:	9c07      	ldr	r4, [sp, #28]
 8008f62:	9b04      	ldr	r3, [sp, #16]
 8008f64:	4293      	cmp	r3, r2
 8008f66:	d178      	bne.n	800905a <ShowSubPopStr+0x162>
 8008f68:	2100      	movs	r1, #0
 8008f6a:	f240 70ff 	movw	r0, #2047	; 0x7ff
 8008f6e:	f003 f882 	bl	800c076 <Set_Color>
 8008f72:	9b12      	ldr	r3, [sp, #72]	; 0x48
 8008f74:	2200      	movs	r2, #0
 8008f76:	9300      	str	r3, [sp, #0]
 8008f78:	4621      	mov	r1, r4
 8008f7a:	2301      	movs	r3, #1
 8008f7c:	4640      	mov	r0, r8
 8008f7e:	f003 f881 	bl	800c084 <Show_Str6x8>
 8008f82:	495e      	ldr	r1, [pc, #376]	; (80090fc <ShowSubPopStr+0x204>)
 8008f84:	4a5e      	ldr	r2, [pc, #376]	; (8009100 <ShowSubPopStr+0x208>)
 8008f86:	7889      	ldrb	r1, [r1, #2]
 8008f88:	8833      	ldrh	r3, [r6, #0]
 8008f8a:	4411      	add	r1, r2
 8008f8c:	7909      	ldrb	r1, [r1, #4]
 8008f8e:	eb02 0281 	add.w	r2, r2, r1, lsl #2
 8008f92:	5cd0      	ldrb	r0, [r2, r3]
 8008f94:	00db      	lsls	r3, r3, #3
 8008f96:	4a5b      	ldr	r2, [pc, #364]	; (8009104 <ShowSubPopStr+0x20c>)
 8008f98:	18f1      	adds	r1, r6, r3
 8008f9a:	4401      	add	r1, r0
 8008f9c:	4413      	add	r3, r2
 8008f9e:	5c1b      	ldrb	r3, [r3, r0]
 8008fa0:	f891 208c 	ldrb.w	r2, [r1, #140]	; 0x8c
 8008fa4:	f240 70ff 	movw	r0, #2047	; 0x7ff
 8008fa8:	429a      	cmp	r2, r3
 8008faa:	bf0c      	ite	eq
 8008fac:	f643 11e7 	movweq	r1, #14823	; 0x39e7
 8008fb0:	2100      	movne	r1, #0
 8008fb2:	f003 f860 	bl	800c076 <Set_Color>
 8008fb6:	4b54      	ldr	r3, [pc, #336]	; (8009108 <ShowSubPopStr+0x210>)
 8008fb8:	2200      	movs	r2, #0
 8008fba:	9300      	str	r3, [sp, #0]
 8008fbc:	4621      	mov	r1, r4
 8008fbe:	2301      	movs	r3, #1
 8008fc0:	9802      	ldr	r0, [sp, #8]
 8008fc2:	f003 f85f 	bl	800c084 <Show_Str6x8>
 8008fc6:	2100      	movs	r1, #0
 8008fc8:	f240 70ff 	movw	r0, #2047	; 0x7ff
 8008fcc:	f003 f853 	bl	800c076 <Set_Color>
 8008fd0:	9b13      	ldr	r3, [sp, #76]	; 0x4c
 8008fd2:	2200      	movs	r2, #0
 8008fd4:	9300      	str	r3, [sp, #0]
 8008fd6:	4621      	mov	r1, r4
 8008fd8:	2301      	movs	r3, #1
 8008fda:	4628      	mov	r0, r5
 8008fdc:	f003 f852 	bl	800c084 <Show_Str6x8>
 8008fe0:	4946      	ldr	r1, [pc, #280]	; (80090fc <ShowSubPopStr+0x204>)
 8008fe2:	4a47      	ldr	r2, [pc, #284]	; (8009100 <ShowSubPopStr+0x208>)
 8008fe4:	7889      	ldrb	r1, [r1, #2]
 8008fe6:	8833      	ldrh	r3, [r6, #0]
 8008fe8:	4411      	add	r1, r2
 8008fea:	7909      	ldrb	r1, [r1, #4]
 8008fec:	eb02 0281 	add.w	r2, r2, r1, lsl #2
 8008ff0:	5cd0      	ldrb	r0, [r2, r3]
 8008ff2:	00da      	lsls	r2, r3, #3
 8008ff4:	4b43      	ldr	r3, [pc, #268]	; (8009104 <ShowSubPopStr+0x20c>)
 8008ff6:	18b1      	adds	r1, r6, r2
 8008ff8:	4413      	add	r3, r2
 8008ffa:	4401      	add	r1, r0
 8008ffc:	4403      	add	r3, r0
 8008ffe:	f891 208c 	ldrb.w	r2, [r1, #140]	; 0x8c
 8009002:	f893 3020 	ldrb.w	r3, [r3, #32]
 8009006:	f240 70ff 	movw	r0, #2047	; 0x7ff
 800900a:	429a      	cmp	r2, r3
 800900c:	bf0c      	ite	eq
 800900e:	f643 11e7 	movweq	r1, #14823	; 0x39e7
 8009012:	2100      	movne	r1, #0
 8009014:	f003 f82f 	bl	800c076 <Set_Color>
 8009018:	4b3c      	ldr	r3, [pc, #240]	; (800910c <ShowSubPopStr+0x214>)
 800901a:	2200      	movs	r2, #0
 800901c:	9300      	str	r3, [sp, #0]
 800901e:	4621      	mov	r1, r4
 8009020:	2301      	movs	r3, #1
 8009022:	9803      	ldr	r0, [sp, #12]
 8009024:	f003 f82e 	bl	800c084 <Show_Str6x8>
 8009028:	9b12      	ldr	r3, [sp, #72]	; 0x48
 800902a:	9a05      	ldr	r2, [sp, #20]
 800902c:	3701      	adds	r7, #1
 800902e:	4413      	add	r3, r2
 8009030:	9312      	str	r3, [sp, #72]	; 0x48
 8009032:	9a06      	ldr	r2, [sp, #24]
 8009034:	9b13      	ldr	r3, [sp, #76]	; 0x4c
 8009036:	4413      	add	r3, r2
 8009038:	9313      	str	r3, [sp, #76]	; 0x4c
 800903a:	b2fb      	uxtb	r3, r7
 800903c:	4553      	cmp	r3, sl
 800903e:	d98b      	bls.n	8008f58 <ShowSubPopStr+0x60>
 8009040:	b009      	add	sp, #36	; 0x24
 8009042:	e8bd 8ff0 	ldmia.w	sp!, {r4, r5, r6, r7, r8, r9, sl, fp, pc}
 8009046:	ebaa 0402 	sub.w	r4, sl, r2
 800904a:	ebc4 04c4 	rsb	r4, r4, r4, lsl #3
 800904e:	f10b 0305 	add.w	r3, fp, #5
 8009052:	eb03 0444 	add.w	r4, r3, r4, lsl #1
 8009056:	b2a4      	uxth	r4, r4
 8009058:	e783      	b.n	8008f62 <ShowSubPopStr+0x6a>
 800905a:	f64f 71ff 	movw	r1, #65535	; 0xffff
 800905e:	f643 10e7 	movw	r0, #14823	; 0x39e7
 8009062:	f003 f808 	bl	800c076 <Set_Color>
 8009066:	9b12      	ldr	r3, [sp, #72]	; 0x48
 8009068:	2200      	movs	r2, #0
 800906a:	9300      	str	r3, [sp, #0]
 800906c:	4621      	mov	r1, r4
 800906e:	2301      	movs	r3, #1
 8009070:	4640      	mov	r0, r8
 8009072:	f003 f807 	bl	800c084 <Show_Str6x8>
 8009076:	8833      	ldrh	r3, [r6, #0]
 8009078:	4a22      	ldr	r2, [pc, #136]	; (8009104 <ShowSubPopStr+0x20c>)
 800907a:	00db      	lsls	r3, r3, #3
 800907c:	fa5f f987 	uxtb.w	r9, r7
 8009080:	18f1      	adds	r1, r6, r3
 8009082:	4449      	add	r1, r9
 8009084:	4413      	add	r3, r2
 8009086:	f813 3009 	ldrb.w	r3, [r3, r9]
 800908a:	f891 208c 	ldrb.w	r2, [r1, #140]	; 0x8c
 800908e:	f643 10e7 	movw	r0, #14823	; 0x39e7
 8009092:	429a      	cmp	r2, r3
 8009094:	bf0c      	ite	eq
 8009096:	f647 31ef 	movweq	r1, #31727	; 0x7bef
 800909a:	f64f 71ff 	movwne	r1, #65535	; 0xffff
 800909e:	f002 ffea 	bl	800c076 <Set_Color>
 80090a2:	4b19      	ldr	r3, [pc, #100]	; (8009108 <ShowSubPopStr+0x210>)
 80090a4:	2200      	movs	r2, #0
 80090a6:	9300      	str	r3, [sp, #0]
 80090a8:	4621      	mov	r1, r4
 80090aa:	2301      	movs	r3, #1
 80090ac:	9802      	ldr	r0, [sp, #8]
 80090ae:	f002 ffe9 	bl	800c084 <Show_Str6x8>
 80090b2:	f64f 71ff 	movw	r1, #65535	; 0xffff
 80090b6:	f643 10e7 	movw	r0, #14823	; 0x39e7
 80090ba:	f002 ffdc 	bl	800c076 <Set_Color>
 80090be:	9b13      	ldr	r3, [sp, #76]	; 0x4c
 80090c0:	2200      	movs	r2, #0
 80090c2:	9300      	str	r3, [sp, #0]
 80090c4:	4621      	mov	r1, r4
 80090c6:	2301      	movs	r3, #1
 80090c8:	4628      	mov	r0, r5
 80090ca:	f002 ffdb 	bl	800c084 <Show_Str6x8>
 80090ce:	8833      	ldrh	r3, [r6, #0]
 80090d0:	f643 10e7 	movw	r0, #14823	; 0x39e7
 80090d4:	00da      	lsls	r2, r3, #3
 80090d6:	4b0b      	ldr	r3, [pc, #44]	; (8009104 <ShowSubPopStr+0x20c>)
 80090d8:	18b1      	adds	r1, r6, r2
 80090da:	4413      	add	r3, r2
 80090dc:	4449      	add	r1, r9
 80090de:	4499      	add	r9, r3
 80090e0:	f891 208c 	ldrb.w	r2, [r1, #140]	; 0x8c
 80090e4:	f899 3020 	ldrb.w	r3, [r9, #32]
 80090e8:	429a      	cmp	r2, r3
 80090ea:	bf0c      	ite	eq
 80090ec:	f647 31ef 	movweq	r1, #31727	; 0x7bef
 80090f0:	f64f 71ff 	movwne	r1, #65535	; 0xffff
 80090f4:	e78e      	b.n	8009014 <ShowSubPopStr+0x11c>
 80090f6:	bf00      	nop
 80090f8:	2000000c 	.word	0x2000000c
 80090fc:	20004c12 	.word	0x20004c12
 8009100:	20000240 	.word	0x20000240
 8009104:	08012c0c 	.word	0x08012c0c
 8009108:	0801383d 	.word	0x0801383d
 800910c:	0801383f 	.word	0x0801383f

08009110 <ShowOutSubPopStr>:
 8009110:	e92d 4ff0 	stmdb	sp!, {r4, r5, r6, r7, r8, r9, sl, fp, lr}
 8009114:	468b      	mov	fp, r1
 8009116:	2700      	movs	r7, #0
 8009118:	b089      	sub	sp, #36	; 0x24
 800911a:	f89d 1058 	ldrb.w	r1, [sp, #88]	; 0x58
 800911e:	9304      	str	r3, [sp, #16]
 8009120:	f89d 3050 	ldrb.w	r3, [sp, #80]	; 0x50
 8009124:	f100 0806 	add.w	r8, r0, #6
 8009128:	4692      	mov	sl, r2
 800912a:	1e4a      	subs	r2, r1, #1
 800912c:	9305      	str	r3, [sp, #20]
 800912e:	fa1f f888 	uxth.w	r8, r8
 8009132:	f89d 3054 	ldrb.w	r3, [sp, #84]	; 0x54
 8009136:	eb02 0242 	add.w	r2, r2, r2, lsl #1
 800913a:	eb08 0242 	add.w	r2, r8, r2, lsl #1
 800913e:	9306      	str	r3, [sp, #24]
 8009140:	b293      	uxth	r3, r2
 8009142:	9302      	str	r3, [sp, #8]
 8009144:	f89d 305c 	ldrb.w	r3, [sp, #92]	; 0x5c
 8009148:	eb01 0541 	add.w	r5, r1, r1, lsl #1
 800914c:	3b01      	subs	r3, #1
 800914e:	440b      	add	r3, r1
 8009150:	eb00 0545 	add.w	r5, r0, r5, lsl #1
 8009154:	eb03 0343 	add.w	r3, r3, r3, lsl #1
 8009158:	300c      	adds	r0, #12
 800915a:	eb00 0343 	add.w	r3, r0, r3, lsl #1
 800915e:	b29b      	uxth	r3, r3
 8009160:	9303      	str	r3, [sp, #12]
 8009162:	f10b 0313 	add.w	r3, fp, #19
 8009166:	3506      	adds	r5, #6
 8009168:	b29b      	uxth	r3, r3
 800916a:	4e6d      	ldr	r6, [pc, #436]	; (8009320 <ShowOutSubPopStr+0x210>)
 800916c:	b2ad      	uxth	r5, r5
 800916e:	9307      	str	r3, [sp, #28]
 8009170:	b2fa      	uxtb	r2, r7
 8009172:	f1ba 0f00 	cmp.w	sl, #0
 8009176:	d178      	bne.n	800926a <ShowOutSubPopStr+0x15a>
 8009178:	9c07      	ldr	r4, [sp, #28]
 800917a:	9b04      	ldr	r3, [sp, #16]
 800917c:	4293      	cmp	r3, r2
 800917e:	d17e      	bne.n	800927e <ShowOutSubPopStr+0x16e>
 8009180:	2100      	movs	r1, #0
 8009182:	f240 70ff 	movw	r0, #2047	; 0x7ff
 8009186:	f002 ff76 	bl	800c076 <Set_Color>
 800918a:	9b12      	ldr	r3, [sp, #72]	; 0x48
 800918c:	2200      	movs	r2, #0
 800918e:	9300      	str	r3, [sp, #0]
 8009190:	4621      	mov	r1, r4
 8009192:	2301      	movs	r3, #1
 8009194:	4640      	mov	r0, r8
 8009196:	f002 ff75 	bl	800c084 <Show_Str6x8>
 800919a:	4962      	ldr	r1, [pc, #392]	; (8009324 <ShowOutSubPopStr+0x214>)
 800919c:	4b62      	ldr	r3, [pc, #392]	; (8009328 <ShowOutSubPopStr+0x218>)
 800919e:	7889      	ldrb	r1, [r1, #2]
 80091a0:	f8b6 2050 	ldrh.w	r2, [r6, #80]	; 0x50
 80091a4:	4419      	add	r1, r3
 80091a6:	7909      	ldrb	r1, [r1, #4]
 80091a8:	eb03 0381 	add.w	r3, r3, r1, lsl #2
 80091ac:	4413      	add	r3, r2
 80091ae:	7ad8      	ldrb	r0, [r3, #11]
 80091b0:	4b5e      	ldr	r3, [pc, #376]	; (800932c <ShowOutSubPopStr+0x21c>)
 80091b2:	00d2      	lsls	r2, r2, #3
 80091b4:	18b1      	adds	r1, r6, r2
 80091b6:	4413      	add	r3, r2
 80091b8:	4401      	add	r1, r0
 80091ba:	4403      	add	r3, r0
 80091bc:	f891 20ac 	ldrb.w	r2, [r1, #172]	; 0xac
 80091c0:	f893 3040 	ldrb.w	r3, [r3, #64]	; 0x40
 80091c4:	f240 70ff 	movw	r0, #2047	; 0x7ff
 80091c8:	429a      	cmp	r2, r3
 80091ca:	bf0c      	ite	eq
 80091cc:	f643 11e7 	movweq	r1, #14823	; 0x39e7
 80091d0:	2100      	movne	r1, #0
 80091d2:	f002 ff50 	bl	800c076 <Set_Color>
 80091d6:	4b56      	ldr	r3, [pc, #344]	; (8009330 <ShowOutSubPopStr+0x220>)
 80091d8:	2200      	movs	r2, #0
 80091da:	9300      	str	r3, [sp, #0]
 80091dc:	4621      	mov	r1, r4
 80091de:	2301      	movs	r3, #1
 80091e0:	9802      	ldr	r0, [sp, #8]
 80091e2:	f002 ff4f 	bl	800c084 <Show_Str6x8>
 80091e6:	2100      	movs	r1, #0
 80091e8:	f240 70ff 	movw	r0, #2047	; 0x7ff
 80091ec:	f002 ff43 	bl	800c076 <Set_Color>
 80091f0:	9b13      	ldr	r3, [sp, #76]	; 0x4c
 80091f2:	2200      	movs	r2, #0
 80091f4:	9300      	str	r3, [sp, #0]
 80091f6:	4621      	mov	r1, r4
 80091f8:	2301      	movs	r3, #1
 80091fa:	4628      	mov	r0, r5
 80091fc:	f002 ff42 	bl	800c084 <Show_Str6x8>
 8009200:	4948      	ldr	r1, [pc, #288]	; (8009324 <ShowOutSubPopStr+0x214>)
 8009202:	4b49      	ldr	r3, [pc, #292]	; (8009328 <ShowOutSubPopStr+0x218>)
 8009204:	7889      	ldrb	r1, [r1, #2]
 8009206:	f8b6 2050 	ldrh.w	r2, [r6, #80]	; 0x50
 800920a:	4419      	add	r1, r3
 800920c:	7909      	ldrb	r1, [r1, #4]
 800920e:	eb03 0381 	add.w	r3, r3, r1, lsl #2
 8009212:	4413      	add	r3, r2
 8009214:	7ad8      	ldrb	r0, [r3, #11]
 8009216:	4b45      	ldr	r3, [pc, #276]	; (800932c <ShowOutSubPopStr+0x21c>)
 8009218:	00d2      	lsls	r2, r2, #3
 800921a:	18b1      	adds	r1, r6, r2
 800921c:	4413      	add	r3, r2
 800921e:	4401      	add	r1, r0
 8009220:	4403      	add	r3, r0
 8009222:	f891 20ac 	ldrb.w	r2, [r1, #172]	; 0xac
 8009226:	f893 3060 	ldrb.w	r3, [r3, #96]	; 0x60
 800922a:	f240 70ff 	movw	r0, #2047	; 0x7ff
 800922e:	429a      	cmp	r2, r3
 8009230:	bf0c      	ite	eq
 8009232:	f643 11e7 	movweq	r1, #14823	; 0x39e7
 8009236:	2100      	movne	r1, #0
 8009238:	f002 ff1d 	bl	800c076 <Set_Color>
 800923c:	4b3d      	ldr	r3, [pc, #244]	; (8009334 <ShowOutSubPopStr+0x224>)
 800923e:	2200      	movs	r2, #0
 8009240:	9300      	str	r3, [sp, #0]
 8009242:	4621      	mov	r1, r4
 8009244:	2301      	movs	r3, #1
 8009246:	9803      	ldr	r0, [sp, #12]
 8009248:	f002 ff1c 	bl	800c084 <Show_Str6x8>
 800924c:	9b12      	ldr	r3, [sp, #72]	; 0x48
 800924e:	9a05      	ldr	r2, [sp, #20]
 8009250:	3701      	adds	r7, #1
 8009252:	4413      	add	r3, r2
 8009254:	9312      	str	r3, [sp, #72]	; 0x48
 8009256:	9a06      	ldr	r2, [sp, #24]
 8009258:	9b13      	ldr	r3, [sp, #76]	; 0x4c
 800925a:	4413      	add	r3, r2
 800925c:	9313      	str	r3, [sp, #76]	; 0x4c
 800925e:	b2fb      	uxtb	r3, r7
 8009260:	4553      	cmp	r3, sl
 8009262:	d985      	bls.n	8009170 <ShowOutSubPopStr+0x60>
 8009264:	b009      	add	sp, #36	; 0x24
 8009266:	e8bd 8ff0 	ldmia.w	sp!, {r4, r5, r6, r7, r8, r9, sl, fp, pc}
 800926a:	ebaa 0402 	sub.w	r4, sl, r2
 800926e:	ebc4 04c4 	rsb	r4, r4, r4, lsl #3
 8009272:	f10b 0305 	add.w	r3, fp, #5
 8009276:	eb03 0444 	add.w	r4, r3, r4, lsl #1
 800927a:	b2a4      	uxth	r4, r4
 800927c:	e77d      	b.n	800917a <ShowOutSubPopStr+0x6a>
 800927e:	f64f 71ff 	movw	r1, #65535	; 0xffff
 8009282:	f643 10e7 	movw	r0, #14823	; 0x39e7
 8009286:	f002 fef6 	bl	800c076 <Set_Color>
 800928a:	9b12      	ldr	r3, [sp, #72]	; 0x48
 800928c:	2200      	movs	r2, #0
 800928e:	9300      	str	r3, [sp, #0]
 8009290:	4621      	mov	r1, r4
 8009292:	2301      	movs	r3, #1
 8009294:	4640      	mov	r0, r8
 8009296:	f002 fef5 	bl	800c084 <Show_Str6x8>
 800929a:	f8b6 3050 	ldrh.w	r3, [r6, #80]	; 0x50
 800929e:	fa5f f987 	uxtb.w	r9, r7
 80092a2:	00da      	lsls	r2, r3, #3
 80092a4:	4b21      	ldr	r3, [pc, #132]	; (800932c <ShowOutSubPopStr+0x21c>)
 80092a6:	18b1      	adds	r1, r6, r2
 80092a8:	4413      	add	r3, r2
 80092aa:	4449      	add	r1, r9
 80092ac:	444b      	add	r3, r9
 80092ae:	f891 20ac 	ldrb.w	r2, [r1, #172]	; 0xac
 80092b2:	f893 3040 	ldrb.w	r3, [r3, #64]	; 0x40
 80092b6:	f643 10e7 	movw	r0, #14823	; 0x39e7
 80092ba:	429a      	cmp	r2, r3
 80092bc:	bf0c      	ite	eq
 80092be:	f647 31ef 	movweq	r1, #31727	; 0x7bef
 80092c2:	f64f 71ff 	movwne	r1, #65535	; 0xffff
 80092c6:	f002 fed6 	bl	800c076 <Set_Color>
 80092ca:	4b19      	ldr	r3, [pc, #100]	; (8009330 <ShowOutSubPopStr+0x220>)
 80092cc:	2200      	movs	r2, #0
 80092ce:	9300      	str	r3, [sp, #0]
 80092d0:	4621      	mov	r1, r4
 80092d2:	2301      	movs	r3, #1
 80092d4:	9802      	ldr	r0, [sp, #8]
 80092d6:	f002 fed5 	bl	800c084 <Show_Str6x8>
 80092da:	f64f 71ff 	movw	r1, #65535	; 0xffff
 80092de:	f643 10e7 	movw	r0, #14823	; 0x39e7
 80092e2:	f002 fec8 	bl	800c076 <Set_Color>
 80092e6:	9b13      	ldr	r3, [sp, #76]	; 0x4c
 80092e8:	2200      	movs	r2, #0
 80092ea:	9300      	str	r3, [sp, #0]
 80092ec:	4621      	mov	r1, r4
 80092ee:	2301      	movs	r3, #1
 80092f0:	4628      	mov	r0, r5
 80092f2:	f002 fec7 	bl	800c084 <Show_Str6x8>
 80092f6:	f8b6 3050 	ldrh.w	r3, [r6, #80]	; 0x50
 80092fa:	f643 10e7 	movw	r0, #14823	; 0x39e7
 80092fe:	00da      	lsls	r2, r3, #3
 8009300:	4b0a      	ldr	r3, [pc, #40]	; (800932c <ShowOutSubPopStr+0x21c>)
 8009302:	18b1      	adds	r1, r6, r2
 8009304:	4413      	add	r3, r2
 8009306:	4449      	add	r1, r9
 8009308:	4499      	add	r9, r3
 800930a:	f891 20ac 	ldrb.w	r2, [r1, #172]	; 0xac
 800930e:	f899 3060 	ldrb.w	r3, [r9, #96]	; 0x60
 8009312:	429a      	cmp	r2, r3
 8009314:	bf0c      	ite	eq
 8009316:	f647 31ef 	movweq	r1, #31727	; 0x7bef
 800931a:	f64f 71ff 	movwne	r1, #65535	; 0xffff
 800931e:	e78b      	b.n	8009238 <ShowOutSubPopStr+0x128>
 8009320:	2000000c 	.word	0x2000000c
 8009324:	20004c12 	.word	0x20004c12
 8009328:	20000240 	.word	0x20000240
 800932c:	08012c0c 	.word	0x08012c0c
 8009330:	0801383d 	.word	0x0801383d
 8009334:	0801383f 	.word	0x0801383f

08009338 <ShowPopStr>:
 8009338:	e92d 4ff0 	stmdb	sp!, {r4, r5, r6, r7, r8, r9, sl, fp, lr}
 800933c:	2500      	movs	r5, #0
 800933e:	b087      	sub	sp, #28
 8009340:	f89d 4048 	ldrb.w	r4, [sp, #72]	; 0x48
 8009344:	9304      	str	r3, [sp, #16]
 8009346:	f89d 304c 	ldrb.w	r3, [sp, #76]	; 0x4c
 800934a:	468b      	mov	fp, r1
 800934c:	eb04 0144 	add.w	r1, r4, r4, lsl #1
 8009350:	eb00 0141 	add.w	r1, r0, r1, lsl #1
 8009354:	3b01      	subs	r3, #1
 8009356:	3106      	adds	r1, #6
 8009358:	4423      	add	r3, r4
 800935a:	4616      	mov	r6, r2
 800935c:	fa1f fa81 	uxth.w	sl, r1
 8009360:	1e62      	subs	r2, r4, #1
 8009362:	f100 010c 	add.w	r1, r0, #12
 8009366:	eb03 0343 	add.w	r3, r3, r3, lsl #1
 800936a:	3006      	adds	r0, #6
 800936c:	eb02 0242 	add.w	r2, r2, r2, lsl #1
 8009370:	eb01 0343 	add.w	r3, r1, r3, lsl #1
 8009374:	b287      	uxth	r7, r0
 8009376:	b29b      	uxth	r3, r3
 8009378:	eb07 0242 	add.w	r2, r7, r2, lsl #1
 800937c:	9302      	str	r3, [sp, #8]
 800937e:	b293      	uxth	r3, r2
 8009380:	9305      	str	r3, [sp, #20]
 8009382:	f04f 090d 	mov.w	r9, #13
 8009386:	9b10      	ldr	r3, [sp, #64]	; 0x40
 8009388:	9a11      	ldr	r2, [sp, #68]	; 0x44
 800938a:	fb09 3905 	mla	r9, r9, r5, r3
 800938e:	eb05 03c5 	add.w	r3, r5, r5, lsl #3
 8009392:	18d3      	adds	r3, r2, r3
 8009394:	9303      	str	r3, [sp, #12]
 8009396:	fa5f f885 	uxtb.w	r8, r5
 800939a:	2e00      	cmp	r6, #0
 800939c:	d169      	bne.n	8009472 <ShowPopStr+0x13a>
 800939e:	4b62      	ldr	r3, [pc, #392]	; (8009528 <ShowPopStr+0x1f0>)
 80093a0:	789b      	ldrb	r3, [r3, #2]
 80093a2:	2b04      	cmp	r3, #4
 80093a4:	bf0c      	ite	eq
 80093a6:	f10b 043d 	addeq.w	r4, fp, #61	; 0x3d
 80093aa:	f10b 0413 	addne.w	r4, fp, #19
 80093ae:	9b04      	ldr	r3, [sp, #16]
 80093b0:	b2a4      	uxth	r4, r4
 80093b2:	4543      	cmp	r3, r8
 80093b4:	d166      	bne.n	8009484 <ShowPopStr+0x14c>
 80093b6:	2100      	movs	r1, #0
 80093b8:	f64b 50e0 	movw	r0, #48608	; 0xbde0
 80093bc:	f002 fe5b 	bl	800c076 <Set_Color>
 80093c0:	2301      	movs	r3, #1
 80093c2:	2200      	movs	r2, #0
 80093c4:	4621      	mov	r1, r4
 80093c6:	4638      	mov	r0, r7
 80093c8:	f8cd 9000 	str.w	r9, [sp]
 80093cc:	f002 fe5a 	bl	800c084 <Show_Str6x8>
 80093d0:	220a      	movs	r2, #10
 80093d2:	4b55      	ldr	r3, [pc, #340]	; (8009528 <ShowPopStr+0x1f0>)
 80093d4:	9904      	ldr	r1, [sp, #16]
 80093d6:	789b      	ldrb	r3, [r3, #2]
 80093d8:	f64b 50e0 	movw	r0, #48608	; 0xbde0
 80093dc:	fb02 1303 	mla	r3, r2, r3, r1
 80093e0:	4a52      	ldr	r2, [pc, #328]	; (800952c <ShowPopStr+0x1f4>)
 80093e2:	4953      	ldr	r1, [pc, #332]	; (8009530 <ShowPopStr+0x1f8>)
 80093e4:	eb02 0243 	add.w	r2, r2, r3, lsl #1
 80093e8:	f831 1013 	ldrh.w	r1, [r1, r3, lsl #1]
 80093ec:	f8b2 3080 	ldrh.w	r3, [r2, #128]	; 0x80
 80093f0:	4299      	cmp	r1, r3
 80093f2:	bf0c      	ite	eq
 80093f4:	f643 11e7 	movweq	r1, #14823	; 0x39e7
 80093f8:	2100      	movne	r1, #0
 80093fa:	f002 fe3c 	bl	800c076 <Set_Color>
 80093fe:	4b4d      	ldr	r3, [pc, #308]	; (8009534 <ShowPopStr+0x1fc>)
 8009400:	2200      	movs	r2, #0
 8009402:	9300      	str	r3, [sp, #0]
 8009404:	4621      	mov	r1, r4
 8009406:	2301      	movs	r3, #1
 8009408:	9805      	ldr	r0, [sp, #20]
 800940a:	f002 fe3b 	bl	800c084 <Show_Str6x8>
 800940e:	2100      	movs	r1, #0
 8009410:	f64b 50e0 	movw	r0, #48608	; 0xbde0
 8009414:	f002 fe2f 	bl	800c076 <Set_Color>
 8009418:	9b03      	ldr	r3, [sp, #12]
 800941a:	4621      	mov	r1, r4
 800941c:	9300      	str	r3, [sp, #0]
 800941e:	2200      	movs	r2, #0
 8009420:	2301      	movs	r3, #1
 8009422:	4650      	mov	r0, sl
 8009424:	f002 fe2e 	bl	800c084 <Show_Str6x8>
 8009428:	220a      	movs	r2, #10
 800942a:	4b3f      	ldr	r3, [pc, #252]	; (8009528 <ShowPopStr+0x1f0>)
 800942c:	f64b 50e0 	movw	r0, #48608	; 0xbde0
 8009430:	789b      	ldrb	r3, [r3, #2]
 8009432:	fb02 8803 	mla	r8, r2, r3, r8
 8009436:	4b3d      	ldr	r3, [pc, #244]	; (800952c <ShowPopStr+0x1f4>)
 8009438:	4a3d      	ldr	r2, [pc, #244]	; (8009530 <ShowPopStr+0x1f8>)
 800943a:	eb03 0348 	add.w	r3, r3, r8, lsl #1
 800943e:	f832 2018 	ldrh.w	r2, [r2, r8, lsl #1]
 8009442:	f8b3 310c 	ldrh.w	r3, [r3, #268]	; 0x10c
 8009446:	429a      	cmp	r2, r3
 8009448:	bf0c      	ite	eq
 800944a:	f643 11e7 	movweq	r1, #14823	; 0x39e7
 800944e:	2100      	movne	r1, #0
 8009450:	f002 fe11 	bl	800c076 <Set_Color>
 8009454:	4b38      	ldr	r3, [pc, #224]	; (8009538 <ShowPopStr+0x200>)
 8009456:	2200      	movs	r2, #0
 8009458:	9300      	str	r3, [sp, #0]
 800945a:	4621      	mov	r1, r4
 800945c:	2301      	movs	r3, #1
 800945e:	9802      	ldr	r0, [sp, #8]
 8009460:	3501      	adds	r5, #1
 8009462:	f002 fe0f 	bl	800c084 <Show_Str6x8>
 8009466:	b2eb      	uxtb	r3, r5
 8009468:	42b3      	cmp	r3, r6
 800946a:	d98a      	bls.n	8009382 <ShowPopStr+0x4a>
 800946c:	b007      	add	sp, #28
 800946e:	e8bd 8ff0 	ldmia.w	sp!, {r4, r5, r6, r7, r8, r9, sl, fp, pc}
 8009472:	eba6 0408 	sub.w	r4, r6, r8
 8009476:	ebc4 04c4 	rsb	r4, r4, r4, lsl #3
 800947a:	f10b 0305 	add.w	r3, fp, #5
 800947e:	eb03 0444 	add.w	r4, r3, r4, lsl #1
 8009482:	e794      	b.n	80093ae <ShowPopStr+0x76>
 8009484:	f64f 71ff 	movw	r1, #65535	; 0xffff
 8009488:	f643 10e7 	movw	r0, #14823	; 0x39e7
 800948c:	f002 fdf3 	bl	800c076 <Set_Color>
 8009490:	2301      	movs	r3, #1
 8009492:	2200      	movs	r2, #0
 8009494:	4621      	mov	r1, r4
 8009496:	4638      	mov	r0, r7
 8009498:	f8cd 9000 	str.w	r9, [sp]
 800949c:	f002 fdf2 	bl	800c084 <Show_Str6x8>
 80094a0:	220a      	movs	r2, #10
 80094a2:	4b21      	ldr	r3, [pc, #132]	; (8009528 <ShowPopStr+0x1f0>)
 80094a4:	4922      	ldr	r1, [pc, #136]	; (8009530 <ShowPopStr+0x1f8>)
 80094a6:	789b      	ldrb	r3, [r3, #2]
 80094a8:	f643 10e7 	movw	r0, #14823	; 0x39e7
 80094ac:	fb02 8303 	mla	r3, r2, r3, r8
 80094b0:	4a1e      	ldr	r2, [pc, #120]	; (800952c <ShowPopStr+0x1f4>)
 80094b2:	f831 1013 	ldrh.w	r1, [r1, r3, lsl #1]
 80094b6:	eb02 0243 	add.w	r2, r2, r3, lsl #1
 80094ba:	f8b2 3080 	ldrh.w	r3, [r2, #128]	; 0x80
 80094be:	4299      	cmp	r1, r3
 80094c0:	bf0c      	ite	eq
 80094c2:	f647 31ef 	movweq	r1, #31727	; 0x7bef
 80094c6:	f64f 71ff 	movwne	r1, #65535	; 0xffff
 80094ca:	f002 fdd4 	bl	800c076 <Set_Color>
 80094ce:	4b19      	ldr	r3, [pc, #100]	; (8009534 <ShowPopStr+0x1fc>)
 80094d0:	2200      	movs	r2, #0
 80094d2:	9300      	str	r3, [sp, #0]
 80094d4:	4621      	mov	r1, r4
 80094d6:	2301      	movs	r3, #1
 80094d8:	9805      	ldr	r0, [sp, #20]
 80094da:	f002 fdd3 	bl	800c084 <Show_Str6x8>
 80094de:	f64f 71ff 	movw	r1, #65535	; 0xffff
 80094e2:	f643 10e7 	movw	r0, #14823	; 0x39e7
 80094e6:	f002 fdc6 	bl	800c076 <Set_Color>
 80094ea:	9b03      	ldr	r3, [sp, #12]
 80094ec:	4621      	mov	r1, r4
 80094ee:	9300      	str	r3, [sp, #0]
 80094f0:	2200      	movs	r2, #0
 80094f2:	2301      	movs	r3, #1
 80094f4:	4650      	mov	r0, sl
 80094f6:	f002 fdc5 	bl	800c084 <Show_Str6x8>
 80094fa:	220a      	movs	r2, #10
 80094fc:	4b0a      	ldr	r3, [pc, #40]	; (8009528 <ShowPopStr+0x1f0>)
 80094fe:	f643 10e7 	movw	r0, #14823	; 0x39e7
 8009502:	789b      	ldrb	r3, [r3, #2]
 8009504:	fb02 8803 	mla	r8, r2, r3, r8
 8009508:	4b08      	ldr	r3, [pc, #32]	; (800952c <ShowPopStr+0x1f4>)
 800950a:	4a09      	ldr	r2, [pc, #36]	; (8009530 <ShowPopStr+0x1f8>)
 800950c:	eb03 0348 	add.w	r3, r3, r8, lsl #1
 8009510:	f832 2018 	ldrh.w	r2, [r2, r8, lsl #1]
 8009514:	f8b3 310c 	ldrh.w	r3, [r3, #268]	; 0x10c
 8009518:	429a      	cmp	r2, r3
 800951a:	bf0c      	ite	eq
 800951c:	f647 31ef 	movweq	r1, #31727	; 0x7bef
 8009520:	f64f 71ff 	movwne	r1, #65535	; 0xffff
 8009524:	e794      	b.n	8009450 <ShowPopStr+0x118>
 8009526:	bf00      	nop
 8009528:	20004c12 	.word	0x20004c12
 800952c:	08012c0c 	.word	0x08012c0c
 8009530:	2000000c 	.word	0x2000000c
 8009534:	0801383d 	.word	0x0801383d
 8009538:	0801383f 	.word	0x0801383f

0800953c <DrawDottedLine>:
 800953c:	e92d 4ff0 	stmdb	sp!, {r4, r5, r6, r7, r8, r9, sl, fp, lr}
 8009540:	b085      	sub	sp, #20
 8009542:	9301      	str	r3, [sp, #4]
 8009544:	1883      	adds	r3, r0, r2
 8009546:	f5b3 7fa0 	cmp.w	r3, #320	; 0x140
 800954a:	4680      	mov	r8, r0
 800954c:	4689      	mov	r9, r1
 800954e:	4614      	mov	r4, r2
 8009550:	f8bd a038 	ldrh.w	sl, [sp, #56]	; 0x38
 8009554:	dc56      	bgt.n	8009604 <DrawDottedLine+0xc8>
 8009556:	9b01      	ldr	r3, [sp, #4]
 8009558:	18cb      	adds	r3, r1, r3
 800955a:	2bf0      	cmp	r3, #240	; 0xf0
 800955c:	dc52      	bgt.n	8009604 <DrawDottedLine+0xc8>
 800955e:	2600      	movs	r6, #0
 8009560:	fa1f fb86 	uxth.w	fp, r6
 8009564:	f10b 01d8 	add.w	r1, fp, #216	; 0xd8
 8009568:	b28b      	uxth	r3, r1
 800956a:	0072      	lsls	r2, r6, #1
 800956c:	2500      	movs	r5, #0
 800956e:	9302      	str	r3, [sp, #8]
 8009570:	e01c      	b.n	80095ac <DrawDottedLine+0x70>
 8009572:	eba8 0106 	sub.w	r1, r8, r6
 8009576:	4429      	add	r1, r5
 8009578:	2927      	cmp	r1, #39	; 0x27
 800957a:	dd15      	ble.n	80095a8 <DrawDottedLine+0x6c>
 800957c:	eba8 070b 	sub.w	r7, r8, fp
 8009580:	442f      	add	r7, r5
 8009582:	b2bf      	uxth	r7, r7
 8009584:	9902      	ldr	r1, [sp, #8]
 8009586:	4638      	mov	r0, r7
 8009588:	9203      	str	r2, [sp, #12]
 800958a:	f002 fad3 	bl	800bb34 <Set_Posi>
 800958e:	4650      	mov	r0, sl
 8009590:	f002 fadc 	bl	800bb4c <Set_Pixel>
 8009594:	f1cb 0145 	rsb	r1, fp, #69	; 0x45
 8009598:	b289      	uxth	r1, r1
 800959a:	4638      	mov	r0, r7
 800959c:	f002 faca 	bl	800bb34 <Set_Posi>
 80095a0:	4650      	mov	r0, sl
 80095a2:	f002 fad3 	bl	800bb4c <Set_Pixel>
 80095a6:	9a03      	ldr	r2, [sp, #12]
 80095a8:	3501      	adds	r5, #1
 80095aa:	b2ad      	uxth	r5, r5
 80095ac:	4295      	cmp	r5, r2
 80095ae:	dde0      	ble.n	8009572 <DrawDottedLine+0x36>
 80095b0:	3601      	adds	r6, #1
 80095b2:	2e04      	cmp	r6, #4
 80095b4:	d1d4      	bne.n	8009560 <DrawDottedLine+0x24>
 80095b6:	3c33      	subs	r4, #51	; 0x33
 80095b8:	f1a8 0533 	sub.w	r5, r8, #51	; 0x33
 80095bc:	44a0      	add	r8, r4
 80095be:	b2ad      	uxth	r5, r5
 80095c0:	fa1f f888 	uxth.w	r8, r8
 80095c4:	f105 0433 	add.w	r4, r5, #51	; 0x33
 80095c8:	4545      	cmp	r5, r8
 80095ca:	b2a4      	uxth	r4, r4
 80095cc:	d01e      	beq.n	800960c <DrawDottedLine+0xd0>
 80095ce:	2600      	movs	r6, #0
 80095d0:	e011      	b.n	80095f6 <DrawDottedLine+0xba>
 80095d2:	eb07 0109 	add.w	r1, r7, r9
 80095d6:	b289      	uxth	r1, r1
 80095d8:	4620      	mov	r0, r4
 80095da:	f002 faab 	bl	800bb34 <Set_Posi>
 80095de:	07bb      	lsls	r3, r7, #30
 80095e0:	d108      	bne.n	80095f4 <DrawDottedLine+0xb8>
 80095e2:	2d7c      	cmp	r5, #124	; 0x7c
 80095e4:	d803      	bhi.n	80095ee <DrawDottedLine+0xb2>
 80095e6:	eb09 0306 	add.w	r3, r9, r6
 80095ea:	2b94      	cmp	r3, #148	; 0x94
 80095ec:	dc02      	bgt.n	80095f4 <DrawDottedLine+0xb8>
 80095ee:	4650      	mov	r0, sl
 80095f0:	f002 faac 	bl	800bb4c <Set_Pixel>
 80095f4:	3601      	adds	r6, #1
 80095f6:	9b01      	ldr	r3, [sp, #4]
 80095f8:	b2b7      	uxth	r7, r6
 80095fa:	429e      	cmp	r6, r3
 80095fc:	d1e9      	bne.n	80095d2 <DrawDottedLine+0x96>
 80095fe:	3501      	adds	r5, #1
 8009600:	b2ad      	uxth	r5, r5
 8009602:	e7df      	b.n	80095c4 <DrawDottedLine+0x88>
 8009604:	2000      	movs	r0, #0
 8009606:	b005      	add	sp, #20
 8009608:	e8bd 8ff0 	ldmia.w	sp!, {r4, r5, r6, r7, r8, r9, sl, fp, pc}
 800960c:	2001      	movs	r0, #1
 800960e:	e7fa      	b.n	8009606 <DrawDottedLine+0xca>

08009610 <ClrCursor>:
 8009610:	e92d 4ff8 	stmdb	sp!, {r3, r4, r5, r6, r7, r8, r9, sl, fp, lr}
 8009614:	4682      	mov	sl, r0
 8009616:	4691      	mov	r9, r2
 8009618:	2500      	movs	r5, #0
 800961a:	fa1f f885 	uxth.w	r8, r5
 800961e:	f108 07d8 	add.w	r7, r8, #216	; 0xd8
 8009622:	ea4f 0b45 	mov.w	fp, r5, lsl #1
 8009626:	2400      	movs	r4, #0
 8009628:	b2bf      	uxth	r7, r7
 800962a:	e01a      	b.n	8009662 <ClrCursor+0x52>
 800962c:	ebaa 0305 	sub.w	r3, sl, r5
 8009630:	4423      	add	r3, r4
 8009632:	2b27      	cmp	r3, #39	; 0x27
 8009634:	dd13      	ble.n	800965e <ClrCursor+0x4e>
 8009636:	ebaa 0608 	sub.w	r6, sl, r8
 800963a:	4426      	add	r6, r4
 800963c:	b2b6      	uxth	r6, r6
 800963e:	4639      	mov	r1, r7
 8009640:	4630      	mov	r0, r6
 8009642:	f002 fa77 	bl	800bb34 <Set_Posi>
 8009646:	4648      	mov	r0, r9
 8009648:	f002 fa80 	bl	800bb4c <Set_Pixel>
 800964c:	f1c8 0145 	rsb	r1, r8, #69	; 0x45
 8009650:	4630      	mov	r0, r6
 8009652:	b289      	uxth	r1, r1
 8009654:	f002 fa6e 	bl	800bb34 <Set_Posi>
 8009658:	4648      	mov	r0, r9
 800965a:	f002 fa77 	bl	800bb4c <Set_Pixel>
 800965e:	3401      	adds	r4, #1
 8009660:	b2a4      	uxth	r4, r4
 8009662:	455c      	cmp	r4, fp
 8009664:	dde2      	ble.n	800962c <ClrCursor+0x1c>
 8009666:	3501      	adds	r5, #1
 8009668:	2d04      	cmp	r5, #4
 800966a:	d1d6      	bne.n	800961a <ClrCursor+0xa>
 800966c:	e8bd 8ff8 	ldmia.w	sp!, {r3, r4, r5, r6, r7, r8, r9, sl, fp, pc}

08009670 <Draw_ScaleRule>:
 8009670:	b5f8      	push	{r3, r4, r5, r6, r7, lr}
 8009672:	2400      	movs	r4, #0
 8009674:	2532      	movs	r5, #50	; 0x32
 8009676:	2619      	movs	r6, #25
 8009678:	2705      	movs	r7, #5
 800967a:	b2a0      	uxth	r0, r4
 800967c:	fbb0 f3f5 	udiv	r3, r0, r5
 8009680:	fb05 0313 	mls	r3, r5, r3, r0
 8009684:	b29b      	uxth	r3, r3
 8009686:	b9eb      	cbnz	r3, 80096c4 <Draw_ScaleRule+0x54>
 8009688:	3028      	adds	r0, #40	; 0x28
 800968a:	2142      	movs	r1, #66	; 0x42
 800968c:	b280      	uxth	r0, r0
 800968e:	f002 fa51 	bl	800bb34 <Set_Posi>
 8009692:	f64f 70ff 	movw	r0, #65535	; 0xffff
 8009696:	f002 fa59 	bl	800bb4c <Set_Pixel>
 800969a:	f64f 70ff 	movw	r0, #65535	; 0xffff
 800969e:	f002 fa55 	bl	800bb4c <Set_Pixel>
 80096a2:	f64f 70ff 	movw	r0, #65535	; 0xffff
 80096a6:	f002 fa51 	bl	800bb4c <Set_Pixel>
 80096aa:	f64f 70ff 	movw	r0, #65535	; 0xffff
 80096ae:	f002 fa4d 	bl	800bb4c <Set_Pixel>
 80096b2:	f64f 70ff 	movw	r0, #65535	; 0xffff
 80096b6:	f002 fa49 	bl	800bb4c <Set_Pixel>
 80096ba:	3401      	adds	r4, #1
 80096bc:	f5b4 7f8c 	cmp.w	r4, #280	; 0x118
 80096c0:	d1db      	bne.n	800967a <Draw_ScaleRule+0xa>
 80096c2:	bdf8      	pop	{r3, r4, r5, r6, r7, pc}
 80096c4:	fbb0 f3f6 	udiv	r3, r0, r6
 80096c8:	fb06 0313 	mls	r3, r6, r3, r0
 80096cc:	b29b      	uxth	r3, r3
 80096ce:	b92b      	cbnz	r3, 80096dc <Draw_ScaleRule+0x6c>
 80096d0:	3028      	adds	r0, #40	; 0x28
 80096d2:	2142      	movs	r1, #66	; 0x42
 80096d4:	b280      	uxth	r0, r0
 80096d6:	f002 fa2d 	bl	800bb34 <Set_Posi>
 80096da:	e7e2      	b.n	80096a2 <Draw_ScaleRule+0x32>
 80096dc:	fbb0 f3f7 	udiv	r3, r0, r7
 80096e0:	eb03 0383 	add.w	r3, r3, r3, lsl #2
 80096e4:	1ac3      	subs	r3, r0, r3
 80096e6:	b29b      	uxth	r3, r3
 80096e8:	2b00      	cmp	r3, #0
 80096ea:	d1e6      	bne.n	80096ba <Draw_ScaleRule+0x4a>
 80096ec:	3028      	adds	r0, #40	; 0x28
 80096ee:	2142      	movs	r1, #66	; 0x42
 80096f0:	b280      	uxth	r0, r0
 80096f2:	f002 fa1f 	bl	800bb34 <Set_Posi>
 80096f6:	e7d8      	b.n	80096aa <Draw_ScaleRule+0x3a>

080096f8 <DrawCursor>:
 80096f8:	e92d 41f0 	stmdb	sp!, {r4, r5, r6, r7, r8, lr}
 80096fc:	4605      	mov	r5, r0
 80096fe:	460e      	mov	r6, r1
 8009700:	4690      	mov	r8, r2
 8009702:	2700      	movs	r7, #0
 8009704:	2400      	movs	r4, #0
 8009706:	e009      	b.n	800971c <DrawCursor+0x24>
 8009708:	1960      	adds	r0, r4, r5
 800970a:	4631      	mov	r1, r6
 800970c:	b280      	uxth	r0, r0
 800970e:	f002 fa11 	bl	800bb34 <Set_Posi>
 8009712:	4640      	mov	r0, r8
 8009714:	f002 fa1a 	bl	800bb4c <Set_Pixel>
 8009718:	3401      	adds	r4, #1
 800971a:	b2a4      	uxth	r4, r4
 800971c:	42a7      	cmp	r7, r4
 800971e:	daf3      	bge.n	8009708 <DrawCursor+0x10>
 8009720:	3702      	adds	r7, #2
 8009722:	3d01      	subs	r5, #1
 8009724:	3601      	adds	r6, #1
 8009726:	2f06      	cmp	r7, #6
 8009728:	b2ad      	uxth	r5, r5
 800972a:	b2b6      	uxth	r6, r6
 800972c:	d1ea      	bne.n	8009704 <DrawCursor+0xc>
 800972e:	e8bd 81f0 	ldmia.w	sp!, {r4, r5, r6, r7, r8, pc}

08009732 <DrawRectangle>:
 8009732:	e92d 43f8 	stmdb	sp!, {r3, r4, r5, r6, r7, r8, r9, lr}
 8009736:	4402      	add	r2, r0
 8009738:	f5b2 7fa0 	cmp.w	r2, #320	; 0x140
 800973c:	460e      	mov	r6, r1
 800973e:	461f      	mov	r7, r3
 8009740:	f8bd 8020 	ldrh.w	r8, [sp, #32]
 8009744:	dc19      	bgt.n	800977a <DrawRectangle+0x48>
 8009746:	18cb      	adds	r3, r1, r3
 8009748:	2bf0      	cmp	r3, #240	; 0xf0
 800974a:	dc16      	bgt.n	800977a <DrawRectangle+0x48>
 800974c:	b294      	uxth	r4, r2
 800974e:	4284      	cmp	r4, r0
 8009750:	d102      	bne.n	8009758 <DrawRectangle+0x26>
 8009752:	2001      	movs	r0, #1
 8009754:	e8bd 83f8 	ldmia.w	sp!, {r3, r4, r5, r6, r7, r8, r9, pc}
 8009758:	4631      	mov	r1, r6
 800975a:	1c45      	adds	r5, r0, #1
 800975c:	f04f 0900 	mov.w	r9, #0
 8009760:	f002 f9e8 	bl	800bb34 <Set_Posi>
 8009764:	b2ad      	uxth	r5, r5
 8009766:	454f      	cmp	r7, r9
 8009768:	d101      	bne.n	800976e <DrawRectangle+0x3c>
 800976a:	4628      	mov	r0, r5
 800976c:	e7ef      	b.n	800974e <DrawRectangle+0x1c>
 800976e:	4640      	mov	r0, r8
 8009770:	f002 f9ec 	bl	800bb4c <Set_Pixel>
 8009774:	f109 0901 	add.w	r9, r9, #1
 8009778:	e7f5      	b.n	8009766 <DrawRectangle+0x34>
 800977a:	2000      	movs	r0, #0
 800977c:	e7ea      	b.n	8009754 <DrawRectangle+0x22>

0800977e <ShowLeftTitle>:
 800977e:	e92d 47f0 	stmdb	sp!, {r4, r5, r6, r7, r8, r9, sl, lr}
 8009782:	2600      	movs	r6, #0
 8009784:	24c3      	movs	r4, #195	; 0xc3
 8009786:	46b0      	mov	r8, r6
 8009788:	f8df a0d0 	ldr.w	sl, [pc, #208]	; 800985c <ShowLeftTitle+0xde>
 800978c:	f8df 90d0 	ldr.w	r9, [pc, #208]	; 8009860 <ShowLeftTitle+0xe2>
 8009790:	b088      	sub	sp, #32
 8009792:	f647 33ef 	movw	r3, #31727	; 0x7bef
 8009796:	4621      	mov	r1, r4
 8009798:	1c77      	adds	r7, r6, #1
 800979a:	9300      	str	r3, [sp, #0]
 800979c:	2226      	movs	r2, #38	; 0x26
 800979e:	2318      	movs	r3, #24
 80097a0:	ad05      	add	r5, sp, #20
 80097a2:	2000      	movs	r0, #0
 80097a4:	f7ff ffc5 	bl	8009732 <DrawRectangle>
 80097a8:	463a      	mov	r2, r7
 80097aa:	4651      	mov	r1, sl
 80097ac:	4628      	mov	r0, r5
 80097ae:	f006 f885 	bl	800f8bc <sprintf>
 80097b2:	2200      	movs	r2, #0
 80097b4:	f104 010d 	add.w	r1, r4, #13
 80097b8:	f839 3016 	ldrh.w	r3, [r9, r6, lsl #1]
 80097bc:	e9cd 8501 	strd	r8, r5, [sp, #4]
 80097c0:	f8cd 8000 	str.w	r8, [sp]
 80097c4:	b289      	uxth	r1, r1
 80097c6:	4610      	mov	r0, r2
 80097c8:	f002 fb62 	bl	800be90 <Disp_Str7x9>
 80097cc:	3c19      	subs	r4, #25
 80097ce:	2f06      	cmp	r7, #6
 80097d0:	b2a4      	uxth	r4, r4
 80097d2:	463e      	mov	r6, r7
 80097d4:	d1dd      	bne.n	8009792 <ShowLeftTitle+0x14>
 80097d6:	24c4      	movs	r4, #196	; 0xc4
 80097d8:	2700      	movs	r7, #0
 80097da:	f8df 8088 	ldr.w	r8, [pc, #136]	; 8009864 <ShowLeftTitle+0xe6>
 80097de:	f8df 9088 	ldr.w	r9, [pc, #136]	; 8009868 <ShowLeftTitle+0xea>
 80097e2:	f64f 71ff 	movw	r1, #65535	; 0xffff
 80097e6:	f647 30ef 	movw	r0, #31727	; 0x7bef
 80097ea:	f002 fc44 	bl	800c076 <Set_Color>
 80097ee:	2206      	movs	r2, #6
 80097f0:	2600      	movs	r6, #0
 80097f2:	f8b9 3000 	ldrh.w	r3, [r9]
 80097f6:	f8cd 601a 	str.w	r6, [sp, #26]
 80097fa:	009b      	lsls	r3, r3, #2
 80097fc:	fb02 7303 	mla	r3, r2, r3, r7
 8009800:	4443      	add	r3, r8
 8009802:	6818      	ldr	r0, [r3, #0]
 8009804:	889b      	ldrh	r3, [r3, #4]
 8009806:	4621      	mov	r1, r4
 8009808:	80ab      	strh	r3, [r5, #4]
 800980a:	2301      	movs	r3, #1
 800980c:	3c19      	subs	r4, #25
 800980e:	6028      	str	r0, [r5, #0]
 8009810:	4632      	mov	r2, r6
 8009812:	9500      	str	r5, [sp, #0]
 8009814:	4618      	mov	r0, r3
 8009816:	b2a4      	uxth	r4, r4
 8009818:	f002 fc34 	bl	800c084 <Show_Str6x8>
 800981c:	2c60      	cmp	r4, #96	; 0x60
 800981e:	f107 0706 	add.w	r7, r7, #6
 8009822:	d1de      	bne.n	80097e2 <ShowLeftTitle+0x64>
 8009824:	f64f 71ff 	movw	r1, #65535	; 0xffff
 8009828:	f647 30ef 	movw	r0, #31727	; 0x7bef
 800982c:	f002 fc23 	bl	800c076 <Set_Color>
 8009830:	2301      	movs	r3, #1
 8009832:	4d09      	ldr	r5, [pc, #36]	; (8009858 <ShowLeftTitle+0xda>)
 8009834:	4632      	mov	r2, r6
 8009836:	4621      	mov	r1, r4
 8009838:	4618      	mov	r0, r3
 800983a:	9500      	str	r5, [sp, #0]
 800983c:	f002 fc22 	bl	800c084 <Show_Str6x8>
 8009840:	2301      	movs	r3, #1
 8009842:	4632      	mov	r2, r6
 8009844:	2147      	movs	r1, #71	; 0x47
 8009846:	4618      	mov	r0, r3
 8009848:	9500      	str	r5, [sp, #0]
 800984a:	f002 fc1b 	bl	800c084 <Show_Str6x8>
 800984e:	f7ff faca 	bl	8008de6 <DrawTriggerIco>
 8009852:	b008      	add	sp, #32
 8009854:	e8bd 87f0 	ldmia.w	sp!, {r4, r5, r6, r7, r8, r9, sl, pc}
 8009858:	08013845 	.word	0x08013845
 800985c:	08013841 	.word	0x08013841
 8009860:	08012da4 	.word	0x08012da4
 8009864:	08012db0 	.word	0x08012db0
 8009868:	2000000c 	.word	0x2000000c

0800986c <ShowSubPop>:
 800986c:	e92d 4ff0 	stmdb	sp!, {r4, r5, r6, r7, r8, r9, sl, fp, lr}
 8009870:	1ac9      	subs	r1, r1, r3
 8009872:	461c      	mov	r4, r3
 8009874:	4b41      	ldr	r3, [pc, #260]	; (800997c <ShowSubPop+0x110>)
 8009876:	b289      	uxth	r1, r1
 8009878:	781b      	ldrb	r3, [r3, #0]
 800987a:	b087      	sub	sp, #28
 800987c:	1f0d      	subs	r5, r1, #4
 800987e:	4606      	mov	r6, r0
 8009880:	e9dd 9a12 	ldrd	r9, sl, [sp, #72]	; 0x48
 8009884:	4617      	mov	r7, r2
 8009886:	f8bd 8040 	ldrh.w	r8, [sp, #64]	; 0x40
 800988a:	f89d b050 	ldrb.w	fp, [sp, #80]	; 0x50
 800988e:	b2ad      	uxth	r5, r5
 8009890:	b38b      	cbz	r3, 80098f6 <ShowSubPop+0x8a>
 8009892:	f8bd c044 	ldrh.w	ip, [sp, #68]	; 0x44
 8009896:	1ea3      	subs	r3, r4, #2
 8009898:	3a02      	subs	r2, #2
 800989a:	3903      	subs	r1, #3
 800989c:	3001      	adds	r0, #1
 800989e:	f8cd c000 	str.w	ip, [sp]
 80098a2:	b29b      	uxth	r3, r3
 80098a4:	b292      	uxth	r2, r2
 80098a6:	b289      	uxth	r1, r1
 80098a8:	b280      	uxth	r0, r0
 80098aa:	f7ff ff42 	bl	8009732 <DrawRectangle>
 80098ae:	4623      	mov	r3, r4
 80098b0:	2201      	movs	r2, #1
 80098b2:	4629      	mov	r1, r5
 80098b4:	f8cd 8000 	str.w	r8, [sp]
 80098b8:	4630      	mov	r0, r6
 80098ba:	f7ff ff3a 	bl	8009732 <DrawRectangle>
 80098be:	1e78      	subs	r0, r7, #1
 80098c0:	4430      	add	r0, r6
 80098c2:	4623      	mov	r3, r4
 80098c4:	2201      	movs	r2, #1
 80098c6:	4629      	mov	r1, r5
 80098c8:	f8cd 8000 	str.w	r8, [sp]
 80098cc:	b280      	uxth	r0, r0
 80098ce:	f7ff ff30 	bl	8009732 <DrawRectangle>
 80098d2:	2301      	movs	r3, #1
 80098d4:	463a      	mov	r2, r7
 80098d6:	4629      	mov	r1, r5
 80098d8:	f8cd 8000 	str.w	r8, [sp]
 80098dc:	4630      	mov	r0, r6
 80098de:	f7ff ff28 	bl	8009732 <DrawRectangle>
 80098e2:	1e61      	subs	r1, r4, #1
 80098e4:	4429      	add	r1, r5
 80098e6:	f8cd 8000 	str.w	r8, [sp]
 80098ea:	2305      	movs	r3, #5
 80098ec:	463a      	mov	r2, r7
 80098ee:	b289      	uxth	r1, r1
 80098f0:	4630      	mov	r0, r6
 80098f2:	f7ff ff1e 	bl	8009732 <DrawRectangle>
 80098f6:	4b22      	ldr	r3, [pc, #136]	; (8009980 <ShowSubPop+0x114>)
 80098f8:	789b      	ldrb	r3, [r3, #2]
 80098fa:	b123      	cbz	r3, 8009906 <ShowSubPop+0x9a>
 80098fc:	2b04      	cmp	r3, #4
 80098fe:	d01f      	beq.n	8009940 <ShowSubPop+0xd4>
 8009900:	b007      	add	sp, #28
 8009902:	e8bd 8ff0 	ldmia.w	sp!, {r4, r5, r6, r7, r8, r9, sl, fp, pc}
 8009906:	4b1f      	ldr	r3, [pc, #124]	; (8009984 <ShowSubPop+0x118>)
 8009908:	8818      	ldrh	r0, [r3, #0]
 800990a:	2800      	cmp	r0, #0
 800990c:	d0f8      	beq.n	8009900 <ShowSubPop+0x94>
 800990e:	4b1e      	ldr	r3, [pc, #120]	; (8009988 <ShowSubPop+0x11c>)
 8009910:	791a      	ldrb	r2, [r3, #4]
 8009912:	0091      	lsls	r1, r2, #2
 8009914:	4a1d      	ldr	r2, [pc, #116]	; (800998c <ShowSubPop+0x120>)
 8009916:	440b      	add	r3, r1
 8009918:	440a      	add	r2, r1
 800991a:	5c1b      	ldrb	r3, [r3, r0]
 800991c:	2110      	movs	r1, #16
 800991e:	4402      	add	r2, r0
 8009920:	2009      	movs	r0, #9
 8009922:	e9cd a101 	strd	sl, r1, [sp, #4]
 8009926:	e9cd 0103 	strd	r0, r1, [sp, #12]
 800992a:	f892 2264 	ldrb.w	r2, [r2, #612]	; 0x264
 800992e:	f8cd b014 	str.w	fp, [sp, #20]
 8009932:	f8cd 9000 	str.w	r9, [sp]
 8009936:	4629      	mov	r1, r5
 8009938:	4630      	mov	r0, r6
 800993a:	f7ff fadd 	bl	8008ef8 <ShowSubPopStr>
 800993e:	e7df      	b.n	8009900 <ShowSubPop+0x94>
 8009940:	4b10      	ldr	r3, [pc, #64]	; (8009984 <ShowSubPop+0x118>)
 8009942:	f8b3 3050 	ldrh.w	r3, [r3, #80]	; 0x50
 8009946:	2b00      	cmp	r3, #0
 8009948:	d1da      	bne.n	8009900 <ShowSubPop+0x94>
 800994a:	4b0f      	ldr	r3, [pc, #60]	; (8009988 <ShowSubPop+0x11c>)
 800994c:	490f      	ldr	r1, [pc, #60]	; (800998c <ShowSubPop+0x120>)
 800994e:	7a1a      	ldrb	r2, [r3, #8]
 8009950:	2009      	movs	r0, #9
 8009952:	0092      	lsls	r2, r2, #2
 8009954:	4413      	add	r3, r2
 8009956:	440a      	add	r2, r1
 8009958:	2110      	movs	r1, #16
 800995a:	7adb      	ldrb	r3, [r3, #11]
 800995c:	f892 2268 	ldrb.w	r2, [r2, #616]	; 0x268
 8009960:	e9cd 0103 	strd	r0, r1, [sp, #12]
 8009964:	e9cd a101 	strd	sl, r1, [sp, #4]
 8009968:	f8cd b014 	str.w	fp, [sp, #20]
 800996c:	f8cd 9000 	str.w	r9, [sp]
 8009970:	4629      	mov	r1, r5
 8009972:	4630      	mov	r0, r6
 8009974:	f7ff fbcc 	bl	8009110 <ShowOutSubPopStr>
 8009978:	e7c2      	b.n	8009900 <ShowSubPop+0x94>
 800997a:	bf00      	nop
 800997c:	20004c0f 	.word	0x20004c0f
 8009980:	20004c12 	.word	0x20004c12
 8009984:	2000000c 	.word	0x2000000c
 8009988:	20000240 	.word	0x20000240
 800998c:	08012c0c 	.word	0x08012c0c

08009990 <ShowSubItem>:
 8009990:	e92d 47f0 	stmdb	sp!, {r4, r5, r6, r7, r8, r9, sl, lr}
 8009994:	b0a0      	sub	sp, #128	; 0x80
 8009996:	ae09      	add	r6, sp, #36	; 0x24
 8009998:	4605      	mov	r5, r0
 800999a:	460f      	mov	r7, r1
 800999c:	225a      	movs	r2, #90	; 0x5a
 800999e:	2100      	movs	r1, #0
 80099a0:	4630      	mov	r0, r6
 80099a2:	f009 f8ca 	bl	8012b3a <memset>
 80099a6:	2300      	movs	r3, #0
 80099a8:	ac06      	add	r4, sp, #24
 80099aa:	9306      	str	r3, [sp, #24]
 80099ac:	6063      	str	r3, [r4, #4]
 80099ae:	8123      	strh	r3, [r4, #8]
 80099b0:	b12d      	cbz	r5, 80099be <ShowSubItem+0x2e>
 80099b2:	2d04      	cmp	r5, #4
 80099b4:	f000 815c 	beq.w	8009c70 <ShowSubItem+0x2e0>
 80099b8:	b020      	add	sp, #128	; 0x80
 80099ba:	e8bd 87f0 	ldmia.w	sp!, {r4, r5, r6, r7, r8, r9, sl, pc}
 80099be:	2f00      	cmp	r7, #0
 80099c0:	d1fa      	bne.n	80099b8 <ShowSubItem+0x28>
 80099c2:	4d9b      	ldr	r5, [pc, #620]	; (8009c30 <ShowSubItem+0x2a0>)
 80099c4:	882b      	ldrh	r3, [r5, #0]
 80099c6:	2b03      	cmp	r3, #3
 80099c8:	d8f6      	bhi.n	80099b8 <ShowSubItem+0x28>
 80099ca:	e8df f003 	tbb	[pc, r3]
 80099ce:	2402      	.short	0x2402
 80099d0:	b688      	.short	0xb688
 80099d2:	4b98      	ldr	r3, [pc, #608]	; (8009c34 <ShowSubItem+0x2a4>)
 80099d4:	4a98      	ldr	r2, [pc, #608]	; (8009c38 <ShowSubItem+0x2a8>)
 80099d6:	7899      	ldrb	r1, [r3, #2]
 80099d8:	4b98      	ldr	r3, [pc, #608]	; (8009c3c <ShowSubItem+0x2ac>)
 80099da:	440b      	add	r3, r1
 80099dc:	2105      	movs	r1, #5
 80099de:	791b      	ldrb	r3, [r3, #4]
 80099e0:	e9cd 6103 	strd	r6, r1, [sp, #12]
 80099e4:	eb02 0383 	add.w	r3, r2, r3, lsl #2
 80099e8:	f893 3264 	ldrb.w	r3, [r3, #612]	; 0x264
 80099ec:	f502 721b 	add.w	r2, r2, #620	; 0x26c
 80099f0:	3301      	adds	r3, #1
 80099f2:	ebc3 03c3 	rsb	r3, r3, r3, lsl #3
 80099f6:	005b      	lsls	r3, r3, #1
 80099f8:	3306      	adds	r3, #6
 80099fa:	b29b      	uxth	r3, r3
 80099fc:	9202      	str	r2, [sp, #8]
 80099fe:	f643 14e7 	movw	r4, #14823	; 0x39e7
 8009a02:	f240 72ff 	movw	r2, #2047	; 0x7ff
 8009a06:	e9cd 2400 	strd	r2, r4, [sp]
 8009a0a:	2290      	movs	r2, #144	; 0x90
 8009a0c:	21c3      	movs	r1, #195	; 0xc3
 8009a0e:	203c      	movs	r0, #60	; 0x3c
 8009a10:	f7ff ff2c 	bl	800986c <ShowSubPop>
 8009a14:	e7d0      	b.n	80099b8 <ShowSubItem+0x28>
 8009a16:	498a      	ldr	r1, [pc, #552]	; (8009c40 <ShowSubItem+0x2b0>)
 8009a18:	4b8a      	ldr	r3, [pc, #552]	; (8009c44 <ShowSubItem+0x2b4>)
 8009a1a:	f895 2094 	ldrb.w	r2, [r5, #148]	; 0x94
 8009a1e:	2a00      	cmp	r2, #0
 8009a20:	bf14      	ite	ne
 8009a22:	461a      	movne	r2, r3
 8009a24:	460a      	moveq	r2, r1
 8009a26:	6810      	ldr	r0, [r2, #0]
 8009a28:	7912      	ldrb	r2, [r2, #4]
 8009a2a:	9009      	str	r0, [sp, #36]	; 0x24
 8009a2c:	7132      	strb	r2, [r6, #4]
 8009a2e:	f895 2095 	ldrb.w	r2, [r5, #149]	; 0x95
 8009a32:	2a00      	cmp	r2, #0
 8009a34:	bf14      	ite	ne
 8009a36:	461a      	movne	r2, r3
 8009a38:	460a      	moveq	r2, r1
 8009a3a:	6810      	ldr	r0, [r2, #0]
 8009a3c:	7912      	ldrb	r2, [r2, #4]
 8009a3e:	f8cd 002d 	str.w	r0, [sp, #45]	; 0x2d
 8009a42:	f88d 2031 	strb.w	r2, [sp, #49]	; 0x31
 8009a46:	f895 2096 	ldrb.w	r2, [r5, #150]	; 0x96
 8009a4a:	4620      	mov	r0, r4
 8009a4c:	2a00      	cmp	r2, #0
 8009a4e:	bf08      	it	eq
 8009a50:	460b      	moveq	r3, r1
 8009a52:	681a      	ldr	r2, [r3, #0]
 8009a54:	791b      	ldrb	r3, [r3, #4]
 8009a56:	f895 1097 	ldrb.w	r1, [r5, #151]	; 0x97
 8009a5a:	f8cd 2036 	str.w	r2, [sp, #54]	; 0x36
 8009a5e:	f88d 303a 	strb.w	r3, [sp, #58]	; 0x3a
 8009a62:	4a79      	ldr	r2, [pc, #484]	; (8009c48 <ShowSubItem+0x2b8>)
 8009a64:	4b79      	ldr	r3, [pc, #484]	; (8009c4c <ShowSubItem+0x2bc>)
 8009a66:	2900      	cmp	r1, #0
 8009a68:	bf08      	it	eq
 8009a6a:	4613      	moveq	r3, r2
 8009a6c:	681a      	ldr	r2, [r3, #0]
 8009a6e:	791b      	ldrb	r3, [r3, #4]
 8009a70:	f8cd 203f 	str.w	r2, [sp, #63]	; 0x3f
 8009a74:	4976      	ldr	r1, [pc, #472]	; (8009c50 <ShowSubItem+0x2c0>)
 8009a76:	f895 2098 	ldrb.w	r2, [r5, #152]	; 0x98
 8009a7a:	f88d 3043 	strb.w	r3, [sp, #67]	; 0x43
 8009a7e:	f005 ff1d 	bl	800f8bc <sprintf>
 8009a82:	4974      	ldr	r1, [pc, #464]	; (8009c54 <ShowSubItem+0x2c4>)
 8009a84:	4620      	mov	r0, r4
 8009a86:	f009 f860 	bl	8012b4a <strcat>
 8009a8a:	e894 0003 	ldmia.w	r4, {r0, r1}
 8009a8e:	4a6a      	ldr	r2, [pc, #424]	; (8009c38 <ShowSubItem+0x2a8>)
 8009a90:	f88d 104c 	strb.w	r1, [sp, #76]	; 0x4c
 8009a94:	f895 1099 	ldrb.w	r1, [r5, #153]	; 0x99
 8009a98:	f502 7323 	add.w	r3, r2, #652	; 0x28c
 8009a9c:	ebc1 01c1 	rsb	r1, r1, r1, lsl #3
 8009aa0:	440b      	add	r3, r1
 8009aa2:	6819      	ldr	r1, [r3, #0]
 8009aa4:	791b      	ldrb	r3, [r3, #4]
 8009aa6:	f8cd 1051 	str.w	r1, [sp, #81]	; 0x51
 8009aaa:	f88d 3055 	strb.w	r3, [sp, #85]	; 0x55
 8009aae:	4b61      	ldr	r3, [pc, #388]	; (8009c34 <ShowSubItem+0x2a4>)
 8009ab0:	9012      	str	r0, [sp, #72]	; 0x48
 8009ab2:	7899      	ldrb	r1, [r3, #2]
 8009ab4:	4b61      	ldr	r3, [pc, #388]	; (8009c3c <ShowSubItem+0x2ac>)
 8009ab6:	440b      	add	r3, r1
 8009ab8:	791b      	ldrb	r3, [r3, #4]
 8009aba:	8829      	ldrh	r1, [r5, #0]
 8009abc:	eb02 0383 	add.w	r3, r2, r3, lsl #2
 8009ac0:	440b      	add	r3, r1
 8009ac2:	2105      	movs	r1, #5
 8009ac4:	f893 3264 	ldrb.w	r3, [r3, #612]	; 0x264
 8009ac8:	e9cd 6103 	strd	r6, r1, [sp, #12]
 8009acc:	3301      	adds	r3, #1
 8009ace:	ebc3 03c3 	rsb	r3, r3, r3, lsl #3
 8009ad2:	005b      	lsls	r3, r3, #1
 8009ad4:	3306      	adds	r3, #6
 8009ad6:	b29b      	uxth	r3, r3
 8009ad8:	f502 722a 	add.w	r2, r2, #680	; 0x2a8
 8009adc:	e78e      	b.n	80099fc <ShowSubItem+0x6c>
 8009ade:	2006      	movs	r0, #6
 8009ae0:	4a55      	ldr	r2, [pc, #340]	; (8009c38 <ShowSubItem+0x2a8>)
 8009ae2:	f895 309c 	ldrb.w	r3, [r5, #156]	; 0x9c
 8009ae6:	f502 7142 	add.w	r1, r2, #776	; 0x308
 8009aea:	fb00 1303 	mla	r3, r0, r3, r1
 8009aee:	f895 109d 	ldrb.w	r1, [r5, #157]	; 0x9d
 8009af2:	6818      	ldr	r0, [r3, #0]
 8009af4:	791b      	ldrb	r3, [r3, #4]
 8009af6:	ebc1 01c1 	rsb	r1, r1, r1, lsl #3
 8009afa:	9009      	str	r0, [sp, #36]	; 0x24
 8009afc:	7133      	strb	r3, [r6, #4]
 8009afe:	f502 7323 	add.w	r3, r2, #652	; 0x28c
 8009b02:	440b      	add	r3, r1
 8009b04:	6819      	ldr	r1, [r3, #0]
 8009b06:	791b      	ldrb	r3, [r3, #4]
 8009b08:	f8cd 102d 	str.w	r1, [sp, #45]	; 0x2d
 8009b0c:	f88d 3031 	strb.w	r3, [sp, #49]	; 0x31
 8009b10:	4b48      	ldr	r3, [pc, #288]	; (8009c34 <ShowSubItem+0x2a4>)
 8009b12:	7899      	ldrb	r1, [r3, #2]
 8009b14:	4b49      	ldr	r3, [pc, #292]	; (8009c3c <ShowSubItem+0x2ac>)
 8009b16:	440b      	add	r3, r1
 8009b18:	2105      	movs	r1, #5
 8009b1a:	791b      	ldrb	r3, [r3, #4]
 8009b1c:	e9cd 6103 	strd	r6, r1, [sp, #12]
 8009b20:	eb02 0383 	add.w	r3, r2, r3, lsl #2
 8009b24:	f893 3266 	ldrb.w	r3, [r3, #614]	; 0x266
 8009b28:	f502 7245 	add.w	r2, r2, #788	; 0x314
 8009b2c:	3301      	adds	r3, #1
 8009b2e:	ebc3 03c3 	rsb	r3, r3, r3, lsl #3
 8009b32:	005b      	lsls	r3, r3, #1
 8009b34:	3306      	adds	r3, #6
 8009b36:	b29b      	uxth	r3, r3
 8009b38:	e760      	b.n	80099fc <ShowSubItem+0x6c>
 8009b3a:	f895 30a4 	ldrb.w	r3, [r5, #164]	; 0xa4
 8009b3e:	4f46      	ldr	r7, [pc, #280]	; (8009c58 <ShowSubItem+0x2c8>)
 8009b40:	ebc3 03c3 	rsb	r3, r3, r3, lsl #3
 8009b44:	443b      	add	r3, r7
 8009b46:	6818      	ldr	r0, [r3, #0]
 8009b48:	889b      	ldrh	r3, [r3, #4]
 8009b4a:	9009      	str	r0, [sp, #36]	; 0x24
 8009b4c:	f895 20a5 	ldrb.w	r2, [r5, #165]	; 0xa5
 8009b50:	4942      	ldr	r1, [pc, #264]	; (8009c5c <ShowSubItem+0x2cc>)
 8009b52:	4620      	mov	r0, r4
 8009b54:	80b3      	strh	r3, [r6, #4]
 8009b56:	f005 feb1 	bl	800f8bc <sprintf>
 8009b5a:	493e      	ldr	r1, [pc, #248]	; (8009c54 <ShowSubItem+0x2c4>)
 8009b5c:	4620      	mov	r0, r4
 8009b5e:	f008 fff4 	bl	8012b4a <strcat>
 8009b62:	88a3      	ldrh	r3, [r4, #4]
 8009b64:	f895 20a6 	ldrb.w	r2, [r5, #166]	; 0xa6
 8009b68:	f8ad 3031 	strh.w	r3, [sp, #49]	; 0x31
 8009b6c:	ebc2 02c2 	rsb	r2, r2, r2, lsl #3
 8009b70:	f107 0338 	add.w	r3, r7, #56	; 0x38
 8009b74:	4413      	add	r3, r2
 8009b76:	681a      	ldr	r2, [r3, #0]
 8009b78:	889b      	ldrh	r3, [r3, #4]
 8009b7a:	f8cd 2036 	str.w	r2, [sp, #54]	; 0x36
 8009b7e:	f895 20a7 	ldrb.w	r2, [r5, #167]	; 0xa7
 8009b82:	f8ad 303a 	strh.w	r3, [sp, #58]	; 0x3a
 8009b86:	ebc2 02c2 	rsb	r2, r2, r2, lsl #3
 8009b8a:	f107 0354 	add.w	r3, r7, #84	; 0x54
 8009b8e:	4413      	add	r3, r2
 8009b90:	681a      	ldr	r2, [r3, #0]
 8009b92:	889b      	ldrh	r3, [r3, #4]
 8009b94:	f895 10a8 	ldrb.w	r1, [r5, #168]	; 0xa8
 8009b98:	f8cd 203f 	str.w	r2, [sp, #63]	; 0x3f
 8009b9c:	f8ad 3043 	strh.w	r3, [sp, #67]	; 0x43
 8009ba0:	4a2f      	ldr	r2, [pc, #188]	; (8009c60 <ShowSubItem+0x2d0>)
 8009ba2:	4b30      	ldr	r3, [pc, #192]	; (8009c64 <ShowSubItem+0x2d4>)
 8009ba4:	9806      	ldr	r0, [sp, #24]
 8009ba6:	2900      	cmp	r1, #0
 8009ba8:	bf08      	it	eq
 8009baa:	4613      	moveq	r3, r2
 8009bac:	f8cd 002d 	str.w	r0, [sp, #45]	; 0x2d
 8009bb0:	6818      	ldr	r0, [r3, #0]
 8009bb2:	889b      	ldrh	r3, [r3, #4]
 8009bb4:	f895 10a9 	ldrb.w	r1, [r5, #169]	; 0xa9
 8009bb8:	f8ad 304c 	strh.w	r3, [sp, #76]	; 0x4c
 8009bbc:	4a2a      	ldr	r2, [pc, #168]	; (8009c68 <ShowSubItem+0x2d8>)
 8009bbe:	4b2b      	ldr	r3, [pc, #172]	; (8009c6c <ShowSubItem+0x2dc>)
 8009bc0:	9012      	str	r0, [sp, #72]	; 0x48
 8009bc2:	2900      	cmp	r1, #0
 8009bc4:	bf08      	it	eq
 8009bc6:	4613      	moveq	r3, r2
 8009bc8:	f895 10aa 	ldrb.w	r1, [r5, #170]	; 0xaa
 8009bcc:	681a      	ldr	r2, [r3, #0]
 8009bce:	889b      	ldrh	r3, [r3, #4]
 8009bd0:	ebc1 01c1 	rsb	r1, r1, r1, lsl #3
 8009bd4:	f8ad 3055 	strh.w	r3, [sp, #85]	; 0x55
 8009bd8:	f1a7 03a8 	sub.w	r3, r7, #168	; 0xa8
 8009bdc:	440b      	add	r3, r1
 8009bde:	6819      	ldr	r1, [r3, #0]
 8009be0:	889b      	ldrh	r3, [r3, #4]
 8009be2:	f8cd 105a 	str.w	r1, [sp, #90]	; 0x5a
 8009be6:	f8ad 305e 	strh.w	r3, [sp, #94]	; 0x5e
 8009bea:	4b12      	ldr	r3, [pc, #72]	; (8009c34 <ShowSubItem+0x2a4>)
 8009bec:	f8cd 2051 	str.w	r2, [sp, #81]	; 0x51
 8009bf0:	7899      	ldrb	r1, [r3, #2]
 8009bf2:	4b12      	ldr	r3, [pc, #72]	; (8009c3c <ShowSubItem+0x2ac>)
 8009bf4:	f5a7 724d 	sub.w	r2, r7, #820	; 0x334
 8009bf8:	440b      	add	r3, r1
 8009bfa:	791b      	ldrb	r3, [r3, #4]
 8009bfc:	8829      	ldrh	r1, [r5, #0]
 8009bfe:	eb02 0383 	add.w	r3, r2, r3, lsl #2
 8009c02:	440b      	add	r3, r1
 8009c04:	f107 0269 	add.w	r2, r7, #105	; 0x69
 8009c08:	f893 3264 	ldrb.w	r3, [r3, #612]	; 0x264
 8009c0c:	2106      	movs	r1, #6
 8009c0e:	9202      	str	r2, [sp, #8]
 8009c10:	f643 10e7 	movw	r0, #14823	; 0x39e7
 8009c14:	f240 72ff 	movw	r2, #2047	; 0x7ff
 8009c18:	3301      	adds	r3, #1
 8009c1a:	ebc3 03c3 	rsb	r3, r3, r3, lsl #3
 8009c1e:	005b      	lsls	r3, r3, #1
 8009c20:	3306      	adds	r3, #6
 8009c22:	e9cd 2000 	strd	r2, r0, [sp]
 8009c26:	b29b      	uxth	r3, r3
 8009c28:	e9cd 6103 	strd	r6, r1, [sp, #12]
 8009c2c:	2296      	movs	r2, #150	; 0x96
 8009c2e:	e6ed      	b.n	8009a0c <ShowSubItem+0x7c>
 8009c30:	2000000c 	.word	0x2000000c
 8009c34:	20004c12 	.word	0x20004c12
 8009c38:	08012c0c 	.word	0x08012c0c
 8009c3c:	20000240 	.word	0x20000240
 8009c40:	08013850 	.word	0x08013850
 8009c44:	0801384a 	.word	0x0801384a
 8009c48:	0801385e 	.word	0x0801385e
 8009c4c:	08013857 	.word	0x08013857
 8009c50:	08013880 	.word	0x08013880
 8009c54:	08012bc6 	.word	0x08012bc6
 8009c58:	08012f40 	.word	0x08012f40
 8009c5c:	08013884 	.word	0x08013884
 8009c60:	0801385d 	.word	0x0801385d
 8009c64:	08013856 	.word	0x08013856
 8009c68:	0801386b 	.word	0x0801386b
 8009c6c:	08013864 	.word	0x08013864
 8009c70:	4f52      	ldr	r7, [pc, #328]	; (8009dbc <ShowSubItem+0x42c>)
 8009c72:	f8b7 3050 	ldrh.w	r3, [r7, #80]	; 0x50
 8009c76:	2b00      	cmp	r3, #0
 8009c78:	f47f ae9e 	bne.w	80099b8 <ShowSubItem+0x28>
 8009c7c:	f897 30ac 	ldrb.w	r3, [r7, #172]	; 0xac
 8009c80:	4d4f      	ldr	r5, [pc, #316]	; (8009dc0 <ShowSubItem+0x430>)
 8009c82:	f8df 9150 	ldr.w	r9, [pc, #336]	; 8009dd4 <ShowSubItem+0x444>
 8009c86:	f04f 0a0a 	mov.w	sl, #10
 8009c8a:	2b00      	cmp	r3, #0
 8009c8c:	bf14      	ite	ne
 8009c8e:	462b      	movne	r3, r5
 8009c90:	464b      	moveq	r3, r9
 8009c92:	6818      	ldr	r0, [r3, #0]
 8009c94:	889b      	ldrh	r3, [r3, #4]
 8009c96:	9009      	str	r0, [sp, #36]	; 0x24
 8009c98:	80b3      	strh	r3, [r6, #4]
 8009c9a:	f897 30ad 	ldrb.w	r3, [r7, #173]	; 0xad
 8009c9e:	f8df 8138 	ldr.w	r8, [pc, #312]	; 8009dd8 <ShowSubItem+0x448>
 8009ca2:	ebc3 03c3 	rsb	r3, r3, r3, lsl #3
 8009ca6:	4443      	add	r3, r8
 8009ca8:	681a      	ldr	r2, [r3, #0]
 8009caa:	889b      	ldrh	r3, [r3, #4]
 8009cac:	f8cd 202d 	str.w	r2, [sp, #45]	; 0x2d
 8009cb0:	f897 20ae 	ldrb.w	r2, [r7, #174]	; 0xae
 8009cb4:	4943      	ldr	r1, [pc, #268]	; (8009dc4 <ShowSubItem+0x434>)
 8009cb6:	fb0a f202 	mul.w	r2, sl, r2
 8009cba:	4620      	mov	r0, r4
 8009cbc:	f8ad 3031 	strh.w	r3, [sp, #49]	; 0x31
 8009cc0:	f005 fdfc 	bl	800f8bc <sprintf>
 8009cc4:	4940      	ldr	r1, [pc, #256]	; (8009dc8 <ShowSubItem+0x438>)
 8009cc6:	4620      	mov	r0, r4
 8009cc8:	f008 ff3f 	bl	8012b4a <strcat>
 8009ccc:	9806      	ldr	r0, [sp, #24]
 8009cce:	f897 20af 	ldrb.w	r2, [r7, #175]	; 0xaf
 8009cd2:	88a3      	ldrh	r3, [r4, #4]
 8009cd4:	fb0a f202 	mul.w	r2, sl, r2
 8009cd8:	f8cd 0036 	str.w	r0, [sp, #54]	; 0x36
 8009cdc:	4939      	ldr	r1, [pc, #228]	; (8009dc4 <ShowSubItem+0x434>)
 8009cde:	4620      	mov	r0, r4
 8009ce0:	f8ad 303a 	strh.w	r3, [sp, #58]	; 0x3a
 8009ce4:	f005 fdea 	bl	800f8bc <sprintf>
 8009ce8:	4937      	ldr	r1, [pc, #220]	; (8009dc8 <ShowSubItem+0x438>)
 8009cea:	4620      	mov	r0, r4
 8009cec:	f008 ff2d 	bl	8012b4a <strcat>
 8009cf0:	88a3      	ldrh	r3, [r4, #4]
 8009cf2:	9806      	ldr	r0, [sp, #24]
 8009cf4:	f8ad 3043 	strh.w	r3, [sp, #67]	; 0x43
 8009cf8:	f897 30b0 	ldrb.w	r3, [r7, #176]	; 0xb0
 8009cfc:	f8cd 003f 	str.w	r0, [sp, #63]	; 0x3f
 8009d00:	2b00      	cmp	r3, #0
 8009d02:	bf08      	it	eq
 8009d04:	464d      	moveq	r5, r9
 8009d06:	88ab      	ldrh	r3, [r5, #4]
 8009d08:	6828      	ldr	r0, [r5, #0]
 8009d0a:	f8ad 304c 	strh.w	r3, [sp, #76]	; 0x4c
 8009d0e:	f897 30b1 	ldrb.w	r3, [r7, #177]	; 0xb1
 8009d12:	f2a8 450d 	subw	r5, r8, #1037	; 0x40d
 8009d16:	ebc3 03c3 	rsb	r3, r3, r3, lsl #3
 8009d1a:	4498      	add	r8, r3
 8009d1c:	f8d8 3000 	ldr.w	r3, [r8]
 8009d20:	f897 20b2 	ldrb.w	r2, [r7, #178]	; 0xb2
 8009d24:	f8cd 3051 	str.w	r3, [sp, #81]	; 0x51
 8009d28:	f8b8 3004 	ldrh.w	r3, [r8, #4]
 8009d2c:	fb0a f202 	mul.w	r2, sl, r2
 8009d30:	9012      	str	r0, [sp, #72]	; 0x48
 8009d32:	4924      	ldr	r1, [pc, #144]	; (8009dc4 <ShowSubItem+0x434>)
 8009d34:	4620      	mov	r0, r4
 8009d36:	f8ad 3055 	strh.w	r3, [sp, #85]	; 0x55
 8009d3a:	f005 fdbf 	bl	800f8bc <sprintf>
 8009d3e:	4922      	ldr	r1, [pc, #136]	; (8009dc8 <ShowSubItem+0x438>)
 8009d40:	4620      	mov	r0, r4
 8009d42:	f008 ff02 	bl	8012b4a <strcat>
 8009d46:	9806      	ldr	r0, [sp, #24]
 8009d48:	f897 20b3 	ldrb.w	r2, [r7, #179]	; 0xb3
 8009d4c:	88a3      	ldrh	r3, [r4, #4]
 8009d4e:	fb0a f202 	mul.w	r2, sl, r2
 8009d52:	f8cd 005a 	str.w	r0, [sp, #90]	; 0x5a
 8009d56:	491b      	ldr	r1, [pc, #108]	; (8009dc4 <ShowSubItem+0x434>)
 8009d58:	4620      	mov	r0, r4
 8009d5a:	f8ad 305e 	strh.w	r3, [sp, #94]	; 0x5e
 8009d5e:	f005 fdad 	bl	800f8bc <sprintf>
 8009d62:	4919      	ldr	r1, [pc, #100]	; (8009dc8 <ShowSubItem+0x438>)
 8009d64:	4620      	mov	r0, r4
 8009d66:	f008 fef0 	bl	8012b4a <strcat>
 8009d6a:	88a3      	ldrh	r3, [r4, #4]
 8009d6c:	f643 11e7 	movw	r1, #14823	; 0x39e7
 8009d70:	f8ad 3067 	strh.w	r3, [sp, #103]	; 0x67
 8009d74:	4b15      	ldr	r3, [pc, #84]	; (8009dcc <ShowSubItem+0x43c>)
 8009d76:	9806      	ldr	r0, [sp, #24]
 8009d78:	789a      	ldrb	r2, [r3, #2]
 8009d7a:	4b15      	ldr	r3, [pc, #84]	; (8009dd0 <ShowSubItem+0x440>)
 8009d7c:	f8cd 0063 	str.w	r0, [sp, #99]	; 0x63
 8009d80:	4413      	add	r3, r2
 8009d82:	791b      	ldrb	r3, [r3, #4]
 8009d84:	f8b7 2050 	ldrh.w	r2, [r7, #80]	; 0x50
 8009d88:	eb05 0383 	add.w	r3, r5, r3, lsl #2
 8009d8c:	4413      	add	r3, r2
 8009d8e:	2206      	movs	r2, #6
 8009d90:	e9cd 6203 	strd	r6, r2, [sp, #12]
 8009d94:	f240 72ff 	movw	r2, #2047	; 0x7ff
 8009d98:	f893 3268 	ldrb.w	r3, [r3, #616]	; 0x268
 8009d9c:	f205 457d 	addw	r5, r5, #1149	; 0x47d
 8009da0:	3301      	adds	r3, #1
 8009da2:	ebc3 03c3 	rsb	r3, r3, r3, lsl #3
 8009da6:	005b      	lsls	r3, r3, #1
 8009da8:	3306      	adds	r3, #6
 8009daa:	e9cd 2100 	strd	r2, r1, [sp]
 8009dae:	b29b      	uxth	r3, r3
 8009db0:	9502      	str	r5, [sp, #8]
 8009db2:	2296      	movs	r2, #150	; 0x96
 8009db4:	21c3      	movs	r1, #195	; 0xc3
 8009db6:	20a0      	movs	r0, #160	; 0xa0
 8009db8:	e62a      	b.n	8009a10 <ShowSubItem+0x80>
 8009dba:	bf00      	nop
 8009dbc:	2000000c 	.word	0x2000000c
 8009dc0:	08013872 	.word	0x08013872
 8009dc4:	08013884 	.word	0x08013884
 8009dc8:	08013888 	.word	0x08013888
 8009dcc:	20004c12 	.word	0x20004c12
 8009dd0:	20000240 	.word	0x20000240
 8009dd4:	08013879 	.word	0x08013879
 8009dd8:	08013019 	.word	0x08013019

08009ddc <ShowSmplStatus>:
 8009ddc:	b537      	push	{r0, r1, r2, r4, r5, lr}
 8009dde:	f647 34ef 	movw	r4, #31727	; 0x7bef
 8009de2:	4605      	mov	r5, r0
 8009de4:	2302      	movs	r3, #2
 8009de6:	2211      	movs	r2, #17
 8009de8:	21df      	movs	r1, #223	; 0xdf
 8009dea:	9400      	str	r4, [sp, #0]
 8009dec:	2000      	movs	r0, #0
 8009dee:	f7ff fca0 	bl	8009732 <DrawRectangle>
 8009df2:	2302      	movs	r3, #2
 8009df4:	2211      	movs	r2, #17
 8009df6:	21eb      	movs	r1, #235	; 0xeb
 8009df8:	9400      	str	r4, [sp, #0]
 8009dfa:	2000      	movs	r0, #0
 8009dfc:	f7ff fc99 	bl	8009732 <DrawRectangle>
 8009e00:	4623      	mov	r3, r4
 8009e02:	220e      	movs	r2, #14
 8009e04:	21df      	movs	r1, #223	; 0xdf
 8009e06:	2011      	movs	r0, #17
 8009e08:	f7fe ffac 	bl	8008d64 <DrawTriangle.part.1>
 8009e0c:	f64f 71ff 	movw	r1, #65535	; 0xffff
 8009e10:	4620      	mov	r0, r4
 8009e12:	f002 f930 	bl	800c076 <Set_Color>
 8009e16:	2200      	movs	r2, #0
 8009e18:	4b13      	ldr	r3, [pc, #76]	; (8009e68 <ShowSmplStatus+0x8c>)
 8009e1a:	21e1      	movs	r1, #225	; 0xe1
 8009e1c:	9300      	str	r3, [sp, #0]
 8009e1e:	4610      	mov	r0, r2
 8009e20:	2301      	movs	r3, #1
 8009e22:	f002 f92f 	bl	800c084 <Show_Str6x8>
 8009e26:	b9bd      	cbnz	r5, 8009e58 <ShowSmplStatus+0x7c>
 8009e28:	f64f 71ff 	movw	r1, #65535	; 0xffff
 8009e2c:	4620      	mov	r0, r4
 8009e2e:	f002 f922 	bl	800c076 <Set_Color>
 8009e32:	4b0e      	ldr	r3, [pc, #56]	; (8009e6c <ShowSmplStatus+0x90>)
 8009e34:	9300      	str	r3, [sp, #0]
 8009e36:	2220      	movs	r2, #32
 8009e38:	2301      	movs	r3, #1
 8009e3a:	21e1      	movs	r1, #225	; 0xe1
 8009e3c:	2006      	movs	r0, #6
 8009e3e:	f002 f921 	bl	800c084 <Show_Str6x8>
 8009e42:	f647 33ef 	movw	r3, #31727	; 0x7bef
 8009e46:	2205      	movs	r2, #5
 8009e48:	9300      	str	r3, [sp, #0]
 8009e4a:	21df      	movs	r1, #223	; 0xdf
 8009e4c:	230e      	movs	r3, #14
 8009e4e:	200c      	movs	r0, #12
 8009e50:	f7ff fc6f 	bl	8009732 <DrawRectangle>
 8009e54:	b003      	add	sp, #12
 8009e56:	bd30      	pop	{r4, r5, pc}
 8009e58:	f44f 61fc 	mov.w	r1, #2016	; 0x7e0
 8009e5c:	4620      	mov	r0, r4
 8009e5e:	f002 f90a 	bl	800c076 <Set_Color>
 8009e62:	4b03      	ldr	r3, [pc, #12]	; (8009e70 <ShowSmplStatus+0x94>)
 8009e64:	e7e6      	b.n	8009e34 <ShowSmplStatus+0x58>
 8009e66:	bf00      	nop
 8009e68:	08012bc7 	.word	0x08012bc7
 8009e6c:	0801388b 	.word	0x0801388b
 8009e70:	0801388d 	.word	0x0801388d

08009e74 <DrawRecLine>:
 8009e74:	e92d 47f0 	stmdb	sp!, {r4, r5, r6, r7, r8, r9, sl, lr}
 8009e78:	eb00 0902 	add.w	r9, r0, r2
 8009e7c:	f5b9 7fa0 	cmp.w	r9, #320	; 0x140
 8009e80:	4604      	mov	r4, r0
 8009e82:	460d      	mov	r5, r1
 8009e84:	4616      	mov	r6, r2
 8009e86:	4698      	mov	r8, r3
 8009e88:	f8bd 7020 	ldrh.w	r7, [sp, #32]
 8009e8c:	da3e      	bge.n	8009f0c <DrawRecLine+0x98>
 8009e8e:	18cb      	adds	r3, r1, r3
 8009e90:	2bef      	cmp	r3, #239	; 0xef
 8009e92:	dc3b      	bgt.n	8009f0c <DrawRecLine+0x98>
 8009e94:	f001 fe4e 	bl	800bb34 <Set_Posi>
 8009e98:	f04f 0a00 	mov.w	sl, #0
 8009e9c:	45c2      	cmp	sl, r8
 8009e9e:	d116      	bne.n	8009ece <DrawRecLine+0x5a>
 8009ea0:	1e70      	subs	r0, r6, #1
 8009ea2:	4420      	add	r0, r4
 8009ea4:	4629      	mov	r1, r5
 8009ea6:	b280      	uxth	r0, r0
 8009ea8:	f001 fe44 	bl	800bb34 <Set_Posi>
 8009eac:	2600      	movs	r6, #0
 8009eae:	4556      	cmp	r6, sl
 8009eb0:	d113      	bne.n	8009eda <DrawRecLine+0x66>
 8009eb2:	4626      	mov	r6, r4
 8009eb4:	fa1f f989 	uxth.w	r9, r9
 8009eb8:	45b1      	cmp	r9, r6
 8009eba:	d113      	bne.n	8009ee4 <DrawRecLine+0x70>
 8009ebc:	f108 38ff 	add.w	r8, r8, #4294967295	; 0xffffffff
 8009ec0:	4445      	add	r5, r8
 8009ec2:	b2ad      	uxth	r5, r5
 8009ec4:	42b4      	cmp	r4, r6
 8009ec6:	d117      	bne.n	8009ef8 <DrawRecLine+0x84>
 8009ec8:	2001      	movs	r0, #1
 8009eca:	e8bd 87f0 	ldmia.w	sp!, {r4, r5, r6, r7, r8, r9, sl, pc}
 8009ece:	4638      	mov	r0, r7
 8009ed0:	f001 fe3c 	bl	800bb4c <Set_Pixel>
 8009ed4:	f10a 0a01 	add.w	sl, sl, #1
 8009ed8:	e7e0      	b.n	8009e9c <DrawRecLine+0x28>
 8009eda:	4638      	mov	r0, r7
 8009edc:	f001 fe36 	bl	800bb4c <Set_Pixel>
 8009ee0:	3601      	adds	r6, #1
 8009ee2:	e7e4      	b.n	8009eae <DrawRecLine+0x3a>
 8009ee4:	4630      	mov	r0, r6
 8009ee6:	4629      	mov	r1, r5
 8009ee8:	f001 fe24 	bl	800bb34 <Set_Posi>
 8009eec:	3601      	adds	r6, #1
 8009eee:	4638      	mov	r0, r7
 8009ef0:	f001 fe2c 	bl	800bb4c <Set_Pixel>
 8009ef4:	b2b6      	uxth	r6, r6
 8009ef6:	e7df      	b.n	8009eb8 <DrawRecLine+0x44>
 8009ef8:	4620      	mov	r0, r4
 8009efa:	4629      	mov	r1, r5
 8009efc:	f001 fe1a 	bl	800bb34 <Set_Posi>
 8009f00:	3401      	adds	r4, #1
 8009f02:	4638      	mov	r0, r7
 8009f04:	f001 fe22 	bl	800bb4c <Set_Pixel>
 8009f08:	b2a4      	uxth	r4, r4
 8009f0a:	e7db      	b.n	8009ec4 <DrawRecLine+0x50>
 8009f0c:	2000      	movs	r0, #0
 8009f0e:	e7dc      	b.n	8009eca <DrawRecLine+0x56>

08009f10 <DrawTriangle>:
 8009f10:	e92d 47f0 	stmdb	sp!, {r4, r5, r6, r7, r8, r9, sl, lr}
 8009f14:	f89d 4020 	ldrb.w	r4, [sp, #32]
 8009f18:	4605      	mov	r5, r0
 8009f1a:	4688      	mov	r8, r1
 8009f1c:	4617      	mov	r7, r2
 8009f1e:	4699      	mov	r9, r3
 8009f20:	b1a4      	cbz	r4, 8009f4c <DrawTriangle+0x3c>
 8009f22:	e8bd 47f0 	ldmia.w	sp!, {r4, r5, r6, r7, r8, r9, sl, lr}
 8009f26:	f7fe bf1d 	b.w	8008d64 <DrawTriangle.part.1>
 8009f2a:	4628      	mov	r0, r5
 8009f2c:	4641      	mov	r1, r8
 8009f2e:	1c6e      	adds	r6, r5, #1
 8009f30:	f001 fe00 	bl	800bb34 <Set_Posi>
 8009f34:	2500      	movs	r5, #0
 8009f36:	b2b6      	uxth	r6, r6
 8009f38:	f104 0a01 	add.w	sl, r4, #1
 8009f3c:	b2ab      	uxth	r3, r5
 8009f3e:	459a      	cmp	sl, r3
 8009f40:	f105 0501 	add.w	r5, r5, #1
 8009f44:	da06      	bge.n	8009f54 <DrawTriangle+0x44>
 8009f46:	4635      	mov	r5, r6
 8009f48:	3402      	adds	r4, #2
 8009f4a:	b2a4      	uxth	r4, r4
 8009f4c:	42bc      	cmp	r4, r7
 8009f4e:	d3ec      	bcc.n	8009f2a <DrawTriangle+0x1a>
 8009f50:	e8bd 87f0 	ldmia.w	sp!, {r4, r5, r6, r7, r8, r9, sl, pc}
 8009f54:	4648      	mov	r0, r9
 8009f56:	f001 fdf9 	bl	800bb4c <Set_Pixel>
 8009f5a:	e7ef      	b.n	8009f3c <DrawTriangle+0x2c>

08009f5c <ShowBattery>:
 8009f5c:	b57f      	push	{r0, r1, r2, r3, r4, r5, r6, lr}
 8009f5e:	4b37      	ldr	r3, [pc, #220]	; (800a03c <ShowBattery+0xe0>)
 8009f60:	f893 40cc 	ldrb.w	r4, [r3, #204]	; 0xcc
 8009f64:	2c01      	cmp	r4, #1
 8009f66:	d14a      	bne.n	8009ffe <ShowBattery+0xa2>
 8009f68:	2200      	movs	r2, #0
 8009f6a:	f883 20cc 	strb.w	r2, [r3, #204]	; 0xcc
 8009f6e:	4a34      	ldr	r2, [pc, #208]	; (800a040 <ShowBattery+0xe4>)
 8009f70:	4b34      	ldr	r3, [pc, #208]	; (800a044 <ShowBattery+0xe8>)
 8009f72:	8811      	ldrh	r1, [r2, #0]
 8009f74:	881b      	ldrh	r3, [r3, #0]
 8009f76:	f241 0268 	movw	r2, #4200	; 0x1068
 8009f7a:	2900      	cmp	r1, #0
 8009f7c:	d041      	beq.n	800a002 <ShowBattery+0xa6>
 8009f7e:	4293      	cmp	r3, r2
 8009f80:	bf94      	ite	ls
 8009f82:	2405      	movls	r4, #5
 8009f84:	2406      	movhi	r4, #6
 8009f86:	2300      	movs	r3, #0
 8009f88:	f647 36ef 	movw	r6, #31727	; 0x7bef
 8009f8c:	9300      	str	r3, [sp, #0]
 8009f8e:	220e      	movs	r2, #14
 8009f90:	f647 33ef 	movw	r3, #31727	; 0x7bef
 8009f94:	21df      	movs	r1, #223	; 0xdf
 8009f96:	f44f 7092 	mov.w	r0, #292	; 0x124
 8009f9a:	f7ff ffb9 	bl	8009f10 <DrawTriangle>
 8009f9e:	2302      	movs	r3, #2
 8009fa0:	2212      	movs	r2, #18
 8009fa2:	21df      	movs	r1, #223	; 0xdf
 8009fa4:	9600      	str	r6, [sp, #0]
 8009fa6:	f240 102b 	movw	r0, #299	; 0x12b
 8009faa:	f7ff fbc2 	bl	8009732 <DrawRectangle>
 8009fae:	4d26      	ldr	r5, [pc, #152]	; (800a048 <ShowBattery+0xec>)
 8009fb0:	2302      	movs	r3, #2
 8009fb2:	2212      	movs	r2, #18
 8009fb4:	21eb      	movs	r1, #235	; 0xeb
 8009fb6:	9600      	str	r6, [sp, #0]
 8009fb8:	f240 102b 	movw	r0, #299	; 0x12b
 8009fbc:	f7ff fbb9 	bl	8009732 <DrawRectangle>
 8009fc0:	2202      	movs	r2, #2
 8009fc2:	230e      	movs	r3, #14
 8009fc4:	21df      	movs	r1, #223	; 0xdf
 8009fc6:	9600      	str	r6, [sp, #0]
 8009fc8:	f240 103d 	movw	r0, #317	; 0x13d
 8009fcc:	f7ff fbb1 	bl	8009732 <DrawRectangle>
 8009fd0:	eb05 0344 	add.w	r3, r5, r4, lsl #1
 8009fd4:	eb04 0484 	add.w	r4, r4, r4, lsl #2
 8009fd8:	f8b3 14fe 	ldrh.w	r1, [r3, #1278]	; 0x4fe
 8009fdc:	4630      	mov	r0, r6
 8009fde:	442c      	add	r4, r5
 8009fe0:	f002 f849 	bl	800c076 <Set_Color>
 8009fe4:	f8d4 250c 	ldr.w	r2, [r4, #1292]	; 0x50c
 8009fe8:	ab04      	add	r3, sp, #16
 8009fea:	f843 2d08 	str.w	r2, [r3, #-8]!
 8009fee:	9300      	str	r3, [sp, #0]
 8009ff0:	2220      	movs	r2, #32
 8009ff2:	2301      	movs	r3, #1
 8009ff4:	21e1      	movs	r1, #225	; 0xe1
 8009ff6:	f240 102b 	movw	r0, #299	; 0x12b
 8009ffa:	f002 f843 	bl	800c084 <Show_Str6x8>
 8009ffe:	b004      	add	sp, #16
 800a000:	bd70      	pop	{r4, r5, r6, pc}
 800a002:	4293      	cmp	r3, r2
 800a004:	d811      	bhi.n	800a02a <ShowBattery+0xce>
 800a006:	f640 723c 	movw	r2, #3900	; 0xf3c
 800a00a:	4293      	cmp	r3, r2
 800a00c:	d80f      	bhi.n	800a02e <ShowBattery+0xd2>
 800a00e:	f640 6274 	movw	r2, #3700	; 0xe74
 800a012:	4293      	cmp	r3, r2
 800a014:	d80d      	bhi.n	800a032 <ShowBattery+0xd6>
 800a016:	f640 5248 	movw	r2, #3400	; 0xd48
 800a01a:	4293      	cmp	r3, r2
 800a01c:	d80b      	bhi.n	800a036 <ShowBattery+0xda>
 800a01e:	f640 42e4 	movw	r2, #3300	; 0xce4
 800a022:	4293      	cmp	r3, r2
 800a024:	bf98      	it	ls
 800a026:	2400      	movls	r4, #0
 800a028:	e7ad      	b.n	8009f86 <ShowBattery+0x2a>
 800a02a:	2405      	movs	r4, #5
 800a02c:	e7ab      	b.n	8009f86 <ShowBattery+0x2a>
 800a02e:	2404      	movs	r4, #4
 800a030:	e7a9      	b.n	8009f86 <ShowBattery+0x2a>
 800a032:	2403      	movs	r4, #3
 800a034:	e7a7      	b.n	8009f86 <ShowBattery+0x2a>
 800a036:	2402      	movs	r4, #2
 800a038:	e7a5      	b.n	8009f86 <ShowBattery+0x2a>
 800a03a:	bf00      	nop
 800a03c:	2000000c 	.word	0x2000000c
 800a040:	200009cc 	.word	0x200009cc
 800a044:	20000104 	.word	0x20000104
 800a048:	08012c0c 	.word	0x08012c0c

0800a04c <ShowTopTitle>:
 800a04c:	e92d 4ff0 	stmdb	sp!, {r4, r5, r6, r7, r8, r9, sl, fp, lr}
 800a050:	f8df 819c 	ldr.w	r8, [pc, #412]	; 800a1f0 <ShowTopTitle+0x1a4>
 800a054:	2600      	movs	r6, #0
 800a056:	251d      	movs	r5, #29
 800a058:	46c1      	mov	r9, r8
 800a05a:	b087      	sub	sp, #28
 800a05c:	ac03      	add	r4, sp, #12
 800a05e:	f8df a194 	ldr.w	sl, [pc, #404]	; 800a1f4 <ShowTopTitle+0x1a8>
 800a062:	9603      	str	r6, [sp, #12]
 800a064:	6066      	str	r6, [r4, #4]
 800a066:	8126      	strh	r6, [r4, #8]
 800a068:	f898 3002 	ldrb.w	r3, [r8, #2]
 800a06c:	b2f7      	uxtb	r7, r6
 800a06e:	42bb      	cmp	r3, r7
 800a070:	d141      	bne.n	800a0f6 <ShowTopTitle+0xaa>
 800a072:	2100      	movs	r1, #0
 800a074:	f64b 50e0 	movw	r0, #48608	; 0xbde0
 800a078:	f001 fffd 	bl	800c076 <Set_Color>
 800a07c:	f64b 5be0 	movw	fp, #48608	; 0xbde0
 800a080:	2300      	movs	r3, #0
 800a082:	1fe8      	subs	r0, r5, #7
 800a084:	9300      	str	r3, [sp, #0]
 800a086:	220e      	movs	r2, #14
 800a088:	465b      	mov	r3, fp
 800a08a:	21df      	movs	r1, #223	; 0xdf
 800a08c:	b280      	uxth	r0, r0
 800a08e:	f7ff ff3f 	bl	8009f10 <DrawTriangle>
 800a092:	2302      	movs	r3, #2
 800a094:	222a      	movs	r2, #42	; 0x2a
 800a096:	21df      	movs	r1, #223	; 0xdf
 800a098:	f8cd b000 	str.w	fp, [sp]
 800a09c:	4628      	mov	r0, r5
 800a09e:	f7ff fb48 	bl	8009732 <DrawRectangle>
 800a0a2:	2302      	movs	r3, #2
 800a0a4:	f8cd b000 	str.w	fp, [sp]
 800a0a8:	222a      	movs	r2, #42	; 0x2a
 800a0aa:	21eb      	movs	r1, #235	; 0xeb
 800a0ac:	4628      	mov	r0, r5
 800a0ae:	f7ff fb40 	bl	8009732 <DrawRectangle>
 800a0b2:	f899 3002 	ldrb.w	r3, [r9, #2]
 800a0b6:	f105 002a 	add.w	r0, r5, #42	; 0x2a
 800a0ba:	2b03      	cmp	r3, #3
 800a0bc:	b280      	uxth	r0, r0
 800a0be:	d927      	bls.n	800a110 <ShowTopTitle+0xc4>
 800a0c0:	2e04      	cmp	r6, #4
 800a0c2:	d125      	bne.n	800a110 <ShowTopTitle+0xc4>
 800a0c4:	2b06      	cmp	r3, #6
 800a0c6:	d023      	beq.n	800a110 <ShowTopTitle+0xc4>
 800a0c8:	f240 73ff 	movw	r3, #2047	; 0x7ff
 800a0cc:	220e      	movs	r2, #14
 800a0ce:	9300      	str	r3, [sp, #0]
 800a0d0:	21df      	movs	r1, #223	; 0xdf
 800a0d2:	465b      	mov	r3, fp
 800a0d4:	f7fe fe63 	bl	8008d9e <DrawTriCol.part.3>
 800a0d8:	f899 3002 	ldrb.w	r3, [r9, #2]
 800a0dc:	2b04      	cmp	r3, #4
 800a0de:	bf82      	ittt	hi
 800a0e0:	3b04      	subhi	r3, #4
 800a0e2:	18ff      	addhi	r7, r7, r3
 800a0e4:	b2ff      	uxtbhi	r7, r7
 800a0e6:	2f06      	cmp	r7, #6
 800a0e8:	d83a      	bhi.n	800a160 <ShowTopTitle+0x114>
 800a0ea:	e8df f007 	tbb	[pc, r7]
 800a0ee:	2517      	.short	0x2517
 800a0f0:	64585042 	.word	0x64585042
 800a0f4:	66          	.byte	0x66
 800a0f5:	00          	.byte	0x00
 800a0f6:	2b04      	cmp	r3, #4
 800a0f8:	d901      	bls.n	800a0fe <ShowTopTitle+0xb2>
 800a0fa:	2f04      	cmp	r7, #4
 800a0fc:	d0b9      	beq.n	800a072 <ShowTopTitle+0x26>
 800a0fe:	f64f 71ff 	movw	r1, #65535	; 0xffff
 800a102:	f647 30ef 	movw	r0, #31727	; 0x7bef
 800a106:	f001 ffb6 	bl	800c076 <Set_Color>
 800a10a:	f647 3bef 	movw	fp, #31727	; 0x7bef
 800a10e:	e7b7      	b.n	800a080 <ShowTopTitle+0x34>
 800a110:	465b      	mov	r3, fp
 800a112:	220e      	movs	r2, #14
 800a114:	21df      	movs	r1, #223	; 0xdf
 800a116:	f7fe fe25 	bl	8008d64 <DrawTriangle.part.1>
 800a11a:	e7dd      	b.n	800a0d8 <ShowTopTitle+0x8c>
 800a11c:	4b28      	ldr	r3, [pc, #160]	; (800a1c0 <ShowTopTitle+0x174>)
 800a11e:	881a      	ldrh	r2, [r3, #0]
 800a120:	789b      	ldrb	r3, [r3, #2]
 800a122:	8022      	strh	r2, [r4, #0]
 800a124:	70a3      	strb	r3, [r4, #2]
 800a126:	4b27      	ldr	r3, [pc, #156]	; (800a1c4 <ShowTopTitle+0x178>)
 800a128:	4a27      	ldr	r2, [pc, #156]	; (800a1c8 <ShowTopTitle+0x17c>)
 800a12a:	881b      	ldrh	r3, [r3, #0]
 800a12c:	eb03 0383 	add.w	r3, r3, r3, lsl #2
 800a130:	589b      	ldr	r3, [r3, r2]
 800a132:	f8cd 300f 	str.w	r3, [sp, #15]
 800a136:	e00c      	b.n	800a152 <ShowTopTitle+0x106>
 800a138:	4b24      	ldr	r3, [pc, #144]	; (800a1cc <ShowTopTitle+0x180>)
 800a13a:	4a25      	ldr	r2, [pc, #148]	; (800a1d0 <ShowTopTitle+0x184>)
 800a13c:	6818      	ldr	r0, [r3, #0]
 800a13e:	791b      	ldrb	r3, [r3, #4]
 800a140:	6020      	str	r0, [r4, #0]
 800a142:	7123      	strb	r3, [r4, #4]
 800a144:	4b23      	ldr	r3, [pc, #140]	; (800a1d4 <ShowTopTitle+0x188>)
 800a146:	795b      	ldrb	r3, [r3, #5]
 800a148:	eb03 0343 	add.w	r3, r3, r3, lsl #1
 800a14c:	5a9b      	ldrh	r3, [r3, r2]
 800a14e:	f8ad 3011 	strh.w	r3, [sp, #17]
 800a152:	9400      	str	r4, [sp, #0]
 800a154:	2301      	movs	r3, #1
 800a156:	2200      	movs	r2, #0
 800a158:	21e1      	movs	r1, #225	; 0xe1
 800a15a:	4628      	mov	r0, r5
 800a15c:	f001 ff92 	bl	800c084 <Show_Str6x8>
 800a160:	3601      	adds	r6, #1
 800a162:	3536      	adds	r5, #54	; 0x36
 800a164:	2e05      	cmp	r6, #5
 800a166:	b2ad      	uxth	r5, r5
 800a168:	f47f af7e 	bne.w	800a068 <ShowTopTitle+0x1c>
 800a16c:	b007      	add	sp, #28
 800a16e:	e8bd 8ff0 	ldmia.w	sp!, {r4, r5, r6, r7, r8, r9, sl, fp, pc}
 800a172:	4b14      	ldr	r3, [pc, #80]	; (800a1c4 <ShowTopTitle+0x178>)
 800a174:	f8c4 a000 	str.w	sl, [r4]
 800a178:	8d1a      	ldrh	r2, [r3, #40]	; 0x28
 800a17a:	4b17      	ldr	r3, [pc, #92]	; (800a1d8 <ShowTopTitle+0x18c>)
 800a17c:	eb03 0382 	add.w	r3, r3, r2, lsl #2
 800a180:	881a      	ldrh	r2, [r3, #0]
 800a182:	789b      	ldrb	r3, [r3, #2]
 800a184:	f8ad 2010 	strh.w	r2, [sp, #16]
 800a188:	f88d 3012 	strb.w	r3, [sp, #18]
 800a18c:	e7e1      	b.n	800a152 <ShowTopTitle+0x106>
 800a18e:	4b13      	ldr	r3, [pc, #76]	; (800a1dc <ShowTopTitle+0x190>)
 800a190:	6818      	ldr	r0, [r3, #0]
 800a192:	889a      	ldrh	r2, [r3, #4]
 800a194:	799b      	ldrb	r3, [r3, #6]
 800a196:	6020      	str	r0, [r4, #0]
 800a198:	80a2      	strh	r2, [r4, #4]
 800a19a:	71a3      	strb	r3, [r4, #6]
 800a19c:	e7d9      	b.n	800a152 <ShowTopTitle+0x106>
 800a19e:	4b10      	ldr	r3, [pc, #64]	; (800a1e0 <ShowTopTitle+0x194>)
 800a1a0:	881a      	ldrh	r2, [r3, #0]
 800a1a2:	789b      	ldrb	r3, [r3, #2]
 800a1a4:	8022      	strh	r2, [r4, #0]
 800a1a6:	70a3      	strb	r3, [r4, #2]
 800a1a8:	4b06      	ldr	r3, [pc, #24]	; (800a1c4 <ShowTopTitle+0x178>)
 800a1aa:	4a0e      	ldr	r2, [pc, #56]	; (800a1e4 <ShowTopTitle+0x198>)
 800a1ac:	f8b3 3050 	ldrh.w	r3, [r3, #80]	; 0x50
 800a1b0:	eb03 0383 	add.w	r3, r3, r3, lsl #2
 800a1b4:	e7bc      	b.n	800a130 <ShowTopTitle+0xe4>
 800a1b6:	4b0c      	ldr	r3, [pc, #48]	; (800a1e8 <ShowTopTitle+0x19c>)
 800a1b8:	e7ea      	b.n	800a190 <ShowTopTitle+0x144>
 800a1ba:	4b0c      	ldr	r3, [pc, #48]	; (800a1ec <ShowTopTitle+0x1a0>)
 800a1bc:	e7e8      	b.n	800a190 <ShowTopTitle+0x144>
 800a1be:	bf00      	nop
 800a1c0:	0801388f 	.word	0x0801388f
 800a1c4:	2000000c 	.word	0x2000000c
 800a1c8:	0801313b 	.word	0x0801313b
 800a1cc:	08013893 	.word	0x08013893
 800a1d0:	08013163 	.word	0x08013163
 800a1d4:	20000240 	.word	0x20000240
 800a1d8:	08013175 	.word	0x08013175
 800a1dc:	08013899 	.word	0x08013899
 800a1e0:	080138a1 	.word	0x080138a1
 800a1e4:	08013195 	.word	0x08013195
 800a1e8:	080138a5 	.word	0x080138a5
 800a1ec:	080138ad 	.word	0x080138ad
 800a1f0:	20004c12 	.word	0x20004c12
 800a1f4:	3a697254 	.word	0x3a697254

0800a1f8 <DrawTriCol>:
 800a1f8:	e92d 47f0 	stmdb	sp!, {r4, r5, r6, r7, r8, r9, sl, lr}
 800a1fc:	f89d 4024 	ldrb.w	r4, [sp, #36]	; 0x24
 800a200:	4605      	mov	r5, r0
 800a202:	4688      	mov	r8, r1
 800a204:	4617      	mov	r7, r2
 800a206:	4699      	mov	r9, r3
 800a208:	f8bd 6020 	ldrh.w	r6, [sp, #32]
 800a20c:	b1ac      	cbz	r4, 800a23a <DrawTriCol+0x42>
 800a20e:	9608      	str	r6, [sp, #32]
 800a210:	e8bd 47f0 	ldmia.w	sp!, {r4, r5, r6, r7, r8, r9, sl, lr}
 800a214:	f7fe bdc3 	b.w	8008d9e <DrawTriCol.part.3>
 800a218:	4628      	mov	r0, r5
 800a21a:	4641      	mov	r1, r8
 800a21c:	1c6e      	adds	r6, r5, #1
 800a21e:	f001 fc89 	bl	800bb34 <Set_Posi>
 800a222:	2500      	movs	r5, #0
 800a224:	b2b6      	uxth	r6, r6
 800a226:	f104 0a01 	add.w	sl, r4, #1
 800a22a:	b2ab      	uxth	r3, r5
 800a22c:	459a      	cmp	sl, r3
 800a22e:	f105 0501 	add.w	r5, r5, #1
 800a232:	da06      	bge.n	800a242 <DrawTriCol+0x4a>
 800a234:	4635      	mov	r5, r6
 800a236:	3402      	adds	r4, #2
 800a238:	b2a4      	uxth	r4, r4
 800a23a:	42bc      	cmp	r4, r7
 800a23c:	d3ec      	bcc.n	800a218 <DrawTriCol+0x20>
 800a23e:	e8bd 87f0 	ldmia.w	sp!, {r4, r5, r6, r7, r8, r9, sl, pc}
 800a242:	4648      	mov	r0, r9
 800a244:	f001 fc82 	bl	800bb4c <Set_Pixel>
 800a248:	e7ef      	b.n	800a22a <DrawTriCol+0x32>

0800a24a <DrawScaleRule>:
 800a24a:	2200      	movs	r2, #0
 800a24c:	e92d 4ff0 	stmdb	sp!, {r4, r5, r6, r7, r8, r9, sl, fp, lr}
 800a250:	b085      	sub	sp, #20
 800a252:	ad02      	add	r5, sp, #8
 800a254:	9202      	str	r2, [sp, #8]
 800a256:	f8c5 2003 	str.w	r2, [r5, #3]
 800a25a:	2203      	movs	r2, #3
 800a25c:	fbb3 f2f2 	udiv	r2, r3, r2
 800a260:	4680      	mov	r8, r0
 800a262:	b2d0      	uxtb	r0, r2
 800a264:	eb02 0242 	add.w	r2, r2, r2, lsl #1
 800a268:	1a9b      	subs	r3, r3, r2
 800a26a:	b2db      	uxtb	r3, r3
 800a26c:	2b01      	cmp	r3, #1
 800a26e:	4689      	mov	r9, r1
 800a270:	d03f      	beq.n	800a2f2 <DrawScaleRule+0xa8>
 800a272:	2b02      	cmp	r3, #2
 800a274:	d041      	beq.n	800a2fa <DrawScaleRule+0xb0>
 800a276:	3801      	subs	r0, #1
 800a278:	b2c0      	uxtb	r0, r0
 800a27a:	f003 fd2b 	bl	800dcd4 <Exp>
 800a27e:	260a      	movs	r6, #10
 800a280:	4346      	muls	r6, r0
 800a282:	2700      	movs	r7, #0
 800a284:	4649      	mov	r1, r9
 800a286:	4640      	mov	r0, r8
 800a288:	f001 fc54 	bl	800bb34 <Set_Posi>
 800a28c:	463c      	mov	r4, r7
 800a28e:	f8df b090 	ldr.w	fp, [pc, #144]	; 800a320 <DrawScaleRule+0xd6>
 800a292:	f014 0a01 	ands.w	sl, r4, #1
 800a296:	d124      	bne.n	800a2e2 <DrawScaleRule+0x98>
 800a298:	4649      	mov	r1, r9
 800a29a:	4640      	mov	r0, r8
 800a29c:	f001 fc4a 	bl	800bb34 <Set_Posi>
 800a2a0:	f647 31ef 	movw	r1, #31727	; 0x7bef
 800a2a4:	4650      	mov	r0, sl
 800a2a6:	f001 fee6 	bl	800c076 <Set_Color>
 800a2aa:	2303      	movs	r3, #3
 800a2ac:	4a1b      	ldr	r2, [pc, #108]	; (800a31c <DrawScaleRule+0xd2>)
 800a2ae:	0879      	lsrs	r1, r7, #1
 800a2b0:	4628      	mov	r0, r5
 800a2b2:	f003 fd9f 	bl	800ddf4 <u32ToStr_Unit>
 800a2b6:	4628      	mov	r0, r5
 800a2b8:	f008 fc56 	bl	8012b68 <strlen>
 800a2bc:	b2c2      	uxtb	r2, r0
 800a2be:	4659      	mov	r1, fp
 800a2c0:	f1c2 0207 	rsb	r2, r2, #7
 800a2c4:	4628      	mov	r0, r5
 800a2c6:	f008 fc57 	bl	8012b78 <strncat>
 800a2ca:	f109 0101 	add.w	r1, r9, #1
 800a2ce:	b289      	uxth	r1, r1
 800a2d0:	b9c4      	cbnz	r4, 800a304 <DrawScaleRule+0xba>
 800a2d2:	4623      	mov	r3, r4
 800a2d4:	4622      	mov	r2, r4
 800a2d6:	f1a8 0002 	sub.w	r0, r8, #2
 800a2da:	9500      	str	r5, [sp, #0]
 800a2dc:	b280      	uxth	r0, r0
 800a2de:	f001 fed1 	bl	800c084 <Show_Str6x8>
 800a2e2:	3401      	adds	r4, #1
 800a2e4:	b2a4      	uxth	r4, r4
 800a2e6:	2c0b      	cmp	r4, #11
 800a2e8:	4437      	add	r7, r6
 800a2ea:	d1d2      	bne.n	800a292 <DrawScaleRule+0x48>
 800a2ec:	b005      	add	sp, #20
 800a2ee:	e8bd 8ff0 	ldmia.w	sp!, {r4, r5, r6, r7, r8, r9, sl, fp, pc}
 800a2f2:	f003 fcef 	bl	800dcd4 <Exp>
 800a2f6:	0046      	lsls	r6, r0, #1
 800a2f8:	e7c3      	b.n	800a282 <DrawScaleRule+0x38>
 800a2fa:	f003 fceb 	bl	800dcd4 <Exp>
 800a2fe:	eb00 0680 	add.w	r6, r0, r0, lsl #2
 800a302:	e7be      	b.n	800a282 <DrawScaleRule+0x38>
 800a304:	eb04 0084 	add.w	r0, r4, r4, lsl #2
 800a308:	f1a8 0309 	sub.w	r3, r8, #9
 800a30c:	eb00 0080 	add.w	r0, r0, r0, lsl #2
 800a310:	4418      	add	r0, r3
 800a312:	9500      	str	r5, [sp, #0]
 800a314:	4653      	mov	r3, sl
 800a316:	4652      	mov	r2, sl
 800a318:	e7e0      	b.n	800a2dc <DrawScaleRule+0x92>
 800a31a:	bf00      	nop
 800a31c:	080131a9 	.word	0x080131a9
 800a320:	08012bc1 	.word	0x08012bc1

0800a324 <ShowWindowPrecent>:
 800a324:	4b20      	ldr	r3, [pc, #128]	; (800a3a8 <ShowWindowPrecent+0x84>)
 800a326:	e92d 41f3 	stmdb	sp!, {r0, r1, r4, r5, r6, r7, r8, lr}
 800a32a:	e9d3 4500 	ldrd	r4, r5, [r3]
 800a32e:	ea54 0305 	orrs.w	r3, r4, r5
 800a332:	d036      	beq.n	800a3a2 <ShowWindowPrecent+0x7e>
 800a334:	f44f 739b 	mov.w	r3, #310	; 0x136
 800a338:	4a1c      	ldr	r2, [pc, #112]	; (800a3ac <ShowWindowPrecent+0x88>)
 800a33a:	f64b 58e0 	movw	r8, #48608	; 0xbde0
 800a33e:	6810      	ldr	r0, [r2, #0]
 800a340:	6856      	ldr	r6, [r2, #4]
 800a342:	fba0 0103 	umull	r0, r1, r0, r3
 800a346:	4622      	mov	r2, r4
 800a348:	fb03 1106 	mla	r1, r3, r6, r1
 800a34c:	462b      	mov	r3, r5
 800a34e:	f008 fa67 	bl	8012820 <__aeabi_uldivmod>
 800a352:	4604      	mov	r4, r0
 800a354:	460d      	mov	r5, r1
 800a356:	2700      	movs	r7, #0
 800a358:	4e15      	ldr	r6, [pc, #84]	; (800a3b0 <ShowWindowPrecent+0x8c>)
 800a35a:	4639      	mov	r1, r7
 800a35c:	8a30      	ldrh	r0, [r6, #16]
 800a35e:	2301      	movs	r3, #1
 800a360:	9700      	str	r7, [sp, #0]
 800a362:	220a      	movs	r2, #10
 800a364:	f7ff f9e5 	bl	8009732 <DrawRectangle>
 800a368:	8a30      	ldrh	r0, [r6, #16]
 800a36a:	2301      	movs	r3, #1
 800a36c:	9700      	str	r7, [sp, #0]
 800a36e:	220a      	movs	r2, #10
 800a370:	2104      	movs	r1, #4
 800a372:	f7ff f9de 	bl	8009732 <DrawRectangle>
 800a376:	f643 13e7 	movw	r3, #14823	; 0x39e7
 800a37a:	8a30      	ldrh	r0, [r6, #16]
 800a37c:	220a      	movs	r2, #10
 800a37e:	9300      	str	r3, [sp, #0]
 800a380:	2101      	movs	r1, #1
 800a382:	2303      	movs	r3, #3
 800a384:	f7ff f9d5 	bl	8009732 <DrawRectangle>
 800a388:	f8cd 8000 	str.w	r8, [sp]
 800a38c:	2305      	movs	r3, #5
 800a38e:	220a      	movs	r2, #10
 800a390:	4639      	mov	r1, r7
 800a392:	b2a0      	uxth	r0, r4
 800a394:	f7ff f9cd 	bl	8009732 <DrawRectangle>
 800a398:	e9c6 4504 	strd	r4, r5, [r6, #16]
 800a39c:	b002      	add	sp, #8
 800a39e:	e8bd 81f0 	ldmia.w	sp!, {r4, r5, r6, r7, r8, pc}
 800a3a2:	f647 38ef 	movw	r8, #31727	; 0x7bef
 800a3a6:	e7d6      	b.n	800a356 <ShowWindowPrecent+0x32>
 800a3a8:	20004c30 	.word	0x20004c30
 800a3ac:	20004c18 	.word	0x20004c18
 800a3b0:	20000240 	.word	0x20000240

0800a3b4 <ShowScaleRuleTime>:
 800a3b4:	2200      	movs	r2, #0
 800a3b6:	e92d 4ff0 	stmdb	sp!, {r4, r5, r6, r7, r8, r9, sl, fp, lr}
 800a3ba:	b085      	sub	sp, #20
 800a3bc:	ad02      	add	r5, sp, #8
 800a3be:	9202      	str	r2, [sp, #8]
 800a3c0:	f8c5 2003 	str.w	r2, [r5, #3]
 800a3c4:	4a3b      	ldr	r2, [pc, #236]	; (800a4b4 <ShowScaleRuleTime+0x100>)
 800a3c6:	4680      	mov	r8, r0
 800a3c8:	e9d2 ab00 	ldrd	sl, fp, [r2]
 800a3cc:	ea5a 020b 	orrs.w	r2, sl, fp
 800a3d0:	4689      	mov	r9, r1
 800a3d2:	d063      	beq.n	800a49c <ShowScaleRuleTime+0xe8>
 800a3d4:	2203      	movs	r2, #3
 800a3d6:	3301      	adds	r3, #1
 800a3d8:	b2db      	uxtb	r3, r3
 800a3da:	fbb3 f2f2 	udiv	r2, r3, r2
 800a3de:	b2d0      	uxtb	r0, r2
 800a3e0:	eb02 0242 	add.w	r2, r2, r2, lsl #1
 800a3e4:	1a9b      	subs	r3, r3, r2
 800a3e6:	b2db      	uxtb	r3, r3
 800a3e8:	2b01      	cmp	r3, #1
 800a3ea:	d043      	beq.n	800a474 <ShowScaleRuleTime+0xc0>
 800a3ec:	2b02      	cmp	r3, #2
 800a3ee:	d045      	beq.n	800a47c <ShowScaleRuleTime+0xc8>
 800a3f0:	3801      	subs	r0, #1
 800a3f2:	b2c0      	uxtb	r0, r0
 800a3f4:	f003 fc6e 	bl	800dcd4 <Exp>
 800a3f8:	260a      	movs	r6, #10
 800a3fa:	4346      	muls	r6, r0
 800a3fc:	2700      	movs	r7, #0
 800a3fe:	4649      	mov	r1, r9
 800a400:	4640      	mov	r0, r8
 800a402:	f001 fb97 	bl	800bb34 <Set_Posi>
 800a406:	230a      	movs	r3, #10
 800a408:	463c      	mov	r4, r7
 800a40a:	fb03 fb0a 	mul.w	fp, r3, sl
 800a40e:	f014 0a01 	ands.w	sl, r4, #1
 800a412:	d125      	bne.n	800a460 <ShowScaleRuleTime+0xac>
 800a414:	4649      	mov	r1, r9
 800a416:	4640      	mov	r0, r8
 800a418:	f001 fb8c 	bl	800bb34 <Set_Posi>
 800a41c:	f647 31ef 	movw	r1, #31727	; 0x7bef
 800a420:	4650      	mov	r0, sl
 800a422:	f001 fe28 	bl	800c076 <Set_Color>
 800a426:	2303      	movs	r3, #3
 800a428:	4a23      	ldr	r2, [pc, #140]	; (800a4b8 <ShowScaleRuleTime+0x104>)
 800a42a:	eb0b 0157 	add.w	r1, fp, r7, lsr #1
 800a42e:	4628      	mov	r0, r5
 800a430:	f003 fce0 	bl	800ddf4 <u32ToStr_Unit>
 800a434:	4628      	mov	r0, r5
 800a436:	f008 fb97 	bl	8012b68 <strlen>
 800a43a:	b2c2      	uxtb	r2, r0
 800a43c:	491f      	ldr	r1, [pc, #124]	; (800a4bc <ShowScaleRuleTime+0x108>)
 800a43e:	f1c2 0207 	rsb	r2, r2, #7
 800a442:	4628      	mov	r0, r5
 800a444:	f008 fb98 	bl	8012b78 <strncat>
 800a448:	f109 0101 	add.w	r1, r9, #1
 800a44c:	b289      	uxth	r1, r1
 800a44e:	b9d4      	cbnz	r4, 800a486 <ShowScaleRuleTime+0xd2>
 800a450:	4623      	mov	r3, r4
 800a452:	4622      	mov	r2, r4
 800a454:	f1a8 0002 	sub.w	r0, r8, #2
 800a458:	9500      	str	r5, [sp, #0]
 800a45a:	b280      	uxth	r0, r0
 800a45c:	f001 fe12 	bl	800c084 <Show_Str6x8>
 800a460:	3401      	adds	r4, #1
 800a462:	b2a4      	uxth	r4, r4
 800a464:	2c0b      	cmp	r4, #11
 800a466:	4437      	add	r7, r6
 800a468:	d1d1      	bne.n	800a40e <ShowScaleRuleTime+0x5a>
 800a46a:	f7ff ff5b 	bl	800a324 <ShowWindowPrecent>
 800a46e:	b005      	add	sp, #20
 800a470:	e8bd 8ff0 	ldmia.w	sp!, {r4, r5, r6, r7, r8, r9, sl, fp, pc}
 800a474:	f003 fc2e 	bl	800dcd4 <Exp>
 800a478:	0046      	lsls	r6, r0, #1
 800a47a:	e7bf      	b.n	800a3fc <ShowScaleRuleTime+0x48>
 800a47c:	f003 fc2a 	bl	800dcd4 <Exp>
 800a480:	eb00 0680 	add.w	r6, r0, r0, lsl #2
 800a484:	e7ba      	b.n	800a3fc <ShowScaleRuleTime+0x48>
 800a486:	eb04 0084 	add.w	r0, r4, r4, lsl #2
 800a48a:	f1a8 0309 	sub.w	r3, r8, #9
 800a48e:	eb00 0080 	add.w	r0, r0, r0, lsl #2
 800a492:	4418      	add	r0, r3
 800a494:	9500      	str	r5, [sp, #0]
 800a496:	4653      	mov	r3, sl
 800a498:	4652      	mov	r2, sl
 800a49a:	e7de      	b.n	800a45a <ShowScaleRuleTime+0xa6>
 800a49c:	4b08      	ldr	r3, [pc, #32]	; (800a4c0 <ShowScaleRuleTime+0x10c>)
 800a49e:	f44f 728c 	mov.w	r2, #280	; 0x118
 800a4a2:	7d1b      	ldrb	r3, [r3, #20]
 800a4a4:	2137      	movs	r1, #55	; 0x37
 800a4a6:	3301      	adds	r3, #1
 800a4a8:	b2db      	uxtb	r3, r3
 800a4aa:	2029      	movs	r0, #41	; 0x29
 800a4ac:	f7ff fecd 	bl	800a24a <DrawScaleRule>
 800a4b0:	e7db      	b.n	800a46a <ShowScaleRuleTime+0xb6>
 800a4b2:	bf00      	nop
 800a4b4:	20004c18 	.word	0x20004c18
 800a4b8:	080131a9 	.word	0x080131a9
 800a4bc:	08012bc1 	.word	0x08012bc1
 800a4c0:	2000000c 	.word	0x2000000c

0800a4c4 <ShowTimeBaseStr>:
 800a4c4:	b530      	push	{r4, r5, lr}
 800a4c6:	2400      	movs	r4, #0
 800a4c8:	4b0e      	ldr	r3, [pc, #56]	; (800a504 <ShowTimeBaseStr+0x40>)
 800a4ca:	b087      	sub	sp, #28
 800a4cc:	8a9a      	ldrh	r2, [r3, #20]
 800a4ce:	4b0e      	ldr	r3, [pc, #56]	; (800a508 <ShowTimeBaseStr+0x44>)
 800a4d0:	ad03      	add	r5, sp, #12
 800a4d2:	eb03 03c2 	add.w	r3, r3, r2, lsl #3
 800a4d6:	6818      	ldr	r0, [r3, #0]
 800a4d8:	889b      	ldrh	r3, [r3, #4]
 800a4da:	9003      	str	r0, [sp, #12]
 800a4dc:	f64f 71ff 	movw	r1, #65535	; 0xffff
 800a4e0:	f647 30ef 	movw	r0, #31727	; 0x7bef
 800a4e4:	f8ad 3010 	strh.w	r3, [sp, #16]
 800a4e8:	f8cd 4012 	str.w	r4, [sp, #18]
 800a4ec:	f001 fdc3 	bl	800c076 <Set_Color>
 800a4f0:	9500      	str	r5, [sp, #0]
 800a4f2:	2301      	movs	r3, #1
 800a4f4:	4622      	mov	r2, r4
 800a4f6:	2139      	movs	r1, #57	; 0x39
 800a4f8:	4620      	mov	r0, r4
 800a4fa:	f001 fdc3 	bl	800c084 <Show_Str6x8>
 800a4fe:	b007      	add	sp, #28
 800a500:	bd30      	pop	{r4, r5, pc}
 800a502:	bf00      	nop
 800a504:	2000000c 	.word	0x2000000c
 800a508:	080131bb 	.word	0x080131bb

0800a50c <BackupPreCursorPosition>:
 800a50c:	1e43      	subs	r3, r0, #1
 800a50e:	b2da      	uxtb	r2, r3
 800a510:	2a04      	cmp	r2, #4
 800a512:	bf86      	itte	hi
 800a514:	2300      	movhi	r3, #0
 800a516:	4619      	movhi	r1, r3
 800a518:	4b20      	ldrls	r3, [pc, #128]	; (800a59c <BackupPreCursorPosition+0x90>)
 800a51a:	b510      	push	{r4, lr}
 800a51c:	bf9c      	itt	ls
 800a51e:	189b      	addls	r3, r3, r2
 800a520:	f893 164f 	ldrbls.w	r1, [r3, #1615]	; 0x64f
 800a524:	4a1e      	ldr	r2, [pc, #120]	; (800a5a0 <BackupPreCursorPosition+0x94>)
 800a526:	bf98      	it	ls
 800a528:	f893 3654 	ldrbls.w	r3, [r3, #1620]	; 0x654
 800a52c:	f832 1011 	ldrh.w	r1, [r2, r1, lsl #1]
 800a530:	8b94      	ldrh	r4, [r2, #28]
 800a532:	428c      	cmp	r4, r1
 800a534:	d10c      	bne.n	800a550 <BackupPreCursorPosition+0x44>
 800a536:	2804      	cmp	r0, #4
 800a538:	d009      	beq.n	800a54e <BackupPreCursorPosition+0x42>
 800a53a:	f44f 729a 	mov.w	r2, #308	; 0x134
 800a53e:	4919      	ldr	r1, [pc, #100]	; (800a5a4 <BackupPreCursorPosition+0x98>)
 800a540:	fb02 1003 	mla	r0, r2, r3, r1
 800a544:	f501 7120 	add.w	r1, r1, #640	; 0x280
 800a548:	3018      	adds	r0, #24
 800a54a:	f008 faeb 	bl	8012b24 <memcpy>
 800a54e:	bd10      	pop	{r4, pc}
 800a550:	8ad4      	ldrh	r4, [r2, #22]
 800a552:	428c      	cmp	r4, r1
 800a554:	d108      	bne.n	800a568 <BackupPreCursorPosition+0x5c>
 800a556:	2801      	cmp	r0, #1
 800a558:	d0f9      	beq.n	800a54e <BackupPreCursorPosition+0x42>
 800a55a:	f44f 729a 	mov.w	r2, #308	; 0x134
 800a55e:	4911      	ldr	r1, [pc, #68]	; (800a5a4 <BackupPreCursorPosition+0x98>)
 800a560:	fb02 1003 	mla	r0, r2, r3, r1
 800a564:	3118      	adds	r1, #24
 800a566:	e7ef      	b.n	800a548 <BackupPreCursorPosition+0x3c>
 800a568:	8b14      	ldrh	r4, [r2, #24]
 800a56a:	428c      	cmp	r4, r1
 800a56c:	d109      	bne.n	800a582 <BackupPreCursorPosition+0x76>
 800a56e:	2802      	cmp	r0, #2
 800a570:	d0ed      	beq.n	800a54e <BackupPreCursorPosition+0x42>
 800a572:	f44f 729a 	mov.w	r2, #308	; 0x134
 800a576:	490b      	ldr	r1, [pc, #44]	; (800a5a4 <BackupPreCursorPosition+0x98>)
 800a578:	fb02 1003 	mla	r0, r2, r3, r1
 800a57c:	f501 71a6 	add.w	r1, r1, #332	; 0x14c
 800a580:	e7e2      	b.n	800a548 <BackupPreCursorPosition+0x3c>
 800a582:	8bd2      	ldrh	r2, [r2, #30]
 800a584:	428a      	cmp	r2, r1
 800a586:	d1e2      	bne.n	800a54e <BackupPreCursorPosition+0x42>
 800a588:	2805      	cmp	r0, #5
 800a58a:	d0e0      	beq.n	800a54e <BackupPreCursorPosition+0x42>
 800a58c:	f44f 729a 	mov.w	r2, #308	; 0x134
 800a590:	4904      	ldr	r1, [pc, #16]	; (800a5a4 <BackupPreCursorPosition+0x98>)
 800a592:	fb02 1003 	mla	r0, r2, r3, r1
 800a596:	f501 716d 	add.w	r1, r1, #948	; 0x3b4
 800a59a:	e7d5      	b.n	800a548 <BackupPreCursorPosition+0x3c>
 800a59c:	08012c0c 	.word	0x08012c0c
 800a5a0:	2000000c 	.word	0x2000000c
 800a5a4:	20000240 	.word	0x20000240

0800a5a8 <ShowTimeMarkValue>:
 800a5a8:	e92d 47f0 	stmdb	sp!, {r4, r5, r6, r7, r8, r9, sl, lr}
 800a5ac:	f04f 0a05 	mov.w	sl, #5
 800a5b0:	4e48      	ldr	r6, [pc, #288]	; (800a6d4 <ShowTimeMarkValue+0x12c>)
 800a5b2:	4d49      	ldr	r5, [pc, #292]	; (800a6d8 <ShowTimeMarkValue+0x130>)
 800a5b4:	8ab3      	ldrh	r3, [r6, #20]
 800a5b6:	8af2      	ldrh	r2, [r6, #22]
 800a5b8:	eb05 0383 	add.w	r3, r5, r3, lsl #2
 800a5bc:	f8d3 165c 	ldr.w	r1, [r3, #1628]	; 0x65c
 800a5c0:	f04f 080a 	mov.w	r8, #10
 800a5c4:	4351      	muls	r1, r2
 800a5c6:	fbb1 f1fa 	udiv	r1, r1, sl
 800a5ca:	2700      	movs	r7, #0
 800a5cc:	f8df 9114 	ldr.w	r9, [pc, #276]	; 800a6e4 <ShowTimeMarkValue+0x13c>
 800a5d0:	b086      	sub	sp, #24
 800a5d2:	f8d9 3000 	ldr.w	r3, [r9]
 800a5d6:	ac03      	add	r4, sp, #12
 800a5d8:	4419      	add	r1, r3
 800a5da:	f205 529d 	addw	r2, r5, #1437	; 0x59d
 800a5de:	2303      	movs	r3, #3
 800a5e0:	fb08 f101 	mul.w	r1, r8, r1
 800a5e4:	4620      	mov	r0, r4
 800a5e6:	9703      	str	r7, [sp, #12]
 800a5e8:	6067      	str	r7, [r4, #4]
 800a5ea:	8127      	strh	r7, [r4, #8]
 800a5ec:	f003 fc02 	bl	800ddf4 <u32ToStr_Unit>
 800a5f0:	4620      	mov	r0, r4
 800a5f2:	f008 fab9 	bl	8012b68 <strlen>
 800a5f6:	b2c2      	uxtb	r2, r0
 800a5f8:	f1c2 0206 	rsb	r2, r2, #6
 800a5fc:	4937      	ldr	r1, [pc, #220]	; (800a6dc <ShowTimeMarkValue+0x134>)
 800a5fe:	4620      	mov	r0, r4
 800a600:	f008 faba 	bl	8012b78 <strncat>
 800a604:	4638      	mov	r0, r7
 800a606:	f64f 71ff 	movw	r1, #65535	; 0xffff
 800a60a:	f001 fd34 	bl	800c076 <Set_Color>
 800a60e:	463b      	mov	r3, r7
 800a610:	463a      	mov	r2, r7
 800a612:	9400      	str	r4, [sp, #0]
 800a614:	212c      	movs	r1, #44	; 0x2c
 800a616:	f44f 7089 	mov.w	r0, #274	; 0x112
 800a61a:	f001 fd33 	bl	800c084 <Show_Str6x8>
 800a61e:	8ab3      	ldrh	r3, [r6, #20]
 800a620:	8b32      	ldrh	r2, [r6, #24]
 800a622:	eb05 0383 	add.w	r3, r5, r3, lsl #2
 800a626:	f8d3 165c 	ldr.w	r1, [r3, #1628]	; 0x65c
 800a62a:	f8d9 3000 	ldr.w	r3, [r9]
 800a62e:	4351      	muls	r1, r2
 800a630:	fbb1 f1fa 	udiv	r1, r1, sl
 800a634:	4419      	add	r1, r3
 800a636:	f205 529d 	addw	r2, r5, #1437	; 0x59d
 800a63a:	2303      	movs	r3, #3
 800a63c:	fb08 f101 	mul.w	r1, r8, r1
 800a640:	4620      	mov	r0, r4
 800a642:	f003 fbd7 	bl	800ddf4 <u32ToStr_Unit>
 800a646:	4620      	mov	r0, r4
 800a648:	f008 fa8e 	bl	8012b68 <strlen>
 800a64c:	b2c2      	uxtb	r2, r0
 800a64e:	f1c2 0206 	rsb	r2, r2, #6
 800a652:	4922      	ldr	r1, [pc, #136]	; (800a6dc <ShowTimeMarkValue+0x134>)
 800a654:	4620      	mov	r0, r4
 800a656:	f008 fa8f 	bl	8012b78 <strncat>
 800a65a:	4638      	mov	r0, r7
 800a65c:	f64f 71ff 	movw	r1, #65535	; 0xffff
 800a660:	f001 fd09 	bl	800c076 <Set_Color>
 800a664:	463b      	mov	r3, r7
 800a666:	463a      	mov	r2, r7
 800a668:	9400      	str	r4, [sp, #0]
 800a66a:	2120      	movs	r1, #32
 800a66c:	f44f 7089 	mov.w	r0, #274	; 0x112
 800a670:	f001 fd08 	bl	800c084 <Show_Str6x8>
 800a674:	8b33      	ldrh	r3, [r6, #24]
 800a676:	8af1      	ldrh	r1, [r6, #22]
 800a678:	200a      	movs	r0, #10
 800a67a:	428b      	cmp	r3, r1
 800a67c:	bf2c      	ite	cs
 800a67e:	1a59      	subcs	r1, r3, r1
 800a680:	1ac9      	subcc	r1, r1, r3
 800a682:	8ab3      	ldrh	r3, [r6, #20]
 800a684:	4a16      	ldr	r2, [pc, #88]	; (800a6e0 <ShowTimeMarkValue+0x138>)
 800a686:	eb05 0583 	add.w	r5, r5, r3, lsl #2
 800a68a:	f8d5 365c 	ldr.w	r3, [r5, #1628]	; 0x65c
 800a68e:	4359      	muls	r1, r3
 800a690:	2305      	movs	r3, #5
 800a692:	fbb1 f1f3 	udiv	r1, r1, r3
 800a696:	2303      	movs	r3, #3
 800a698:	4341      	muls	r1, r0
 800a69a:	4620      	mov	r0, r4
 800a69c:	f003 fbaa 	bl	800ddf4 <u32ToStr_Unit>
 800a6a0:	4620      	mov	r0, r4
 800a6a2:	f008 fa61 	bl	8012b68 <strlen>
 800a6a6:	b2c2      	uxtb	r2, r0
 800a6a8:	f1c2 0206 	rsb	r2, r2, #6
 800a6ac:	490b      	ldr	r1, [pc, #44]	; (800a6dc <ShowTimeMarkValue+0x134>)
 800a6ae:	4620      	mov	r0, r4
 800a6b0:	f008 fa62 	bl	8012b78 <strncat>
 800a6b4:	f64f 71ff 	movw	r1, #65535	; 0xffff
 800a6b8:	2000      	movs	r0, #0
 800a6ba:	f001 fcdc 	bl	800c076 <Set_Color>
 800a6be:	2300      	movs	r3, #0
 800a6c0:	9400      	str	r4, [sp, #0]
 800a6c2:	461a      	mov	r2, r3
 800a6c4:	2114      	movs	r1, #20
 800a6c6:	f44f 7089 	mov.w	r0, #274	; 0x112
 800a6ca:	f001 fcdb 	bl	800c084 <Show_Str6x8>
 800a6ce:	b006      	add	sp, #24
 800a6d0:	e8bd 87f0 	ldmia.w	sp!, {r4, r5, r6, r7, r8, r9, sl, pc}
 800a6d4:	2000000c 	.word	0x2000000c
 800a6d8:	08012c0c 	.word	0x08012c0c
 800a6dc:	08012bc2 	.word	0x08012bc2
 800a6e0:	080131a9 	.word	0x080131a9
 800a6e4:	20004c18 	.word	0x20004c18

0800a6e8 <ShowMeasureSourceStr>:
 800a6e8:	b570      	push	{r4, r5, r6, lr}
 800a6ea:	4e13      	ldr	r6, [pc, #76]	; (800a738 <ShowMeasureSourceStr+0x50>)
 800a6ec:	b086      	sub	sp, #24
 800a6ee:	f64f 71ff 	movw	r1, #65535	; 0xffff
 800a6f2:	f647 30ef 	movw	r0, #31727	; 0x7bef
 800a6f6:	f001 fcbe 	bl	800c076 <Set_Color>
 800a6fa:	4d10      	ldr	r5, [pc, #64]	; (800a73c <ShowMeasureSourceStr+0x54>)
 800a6fc:	8fb3      	ldrh	r3, [r6, #60]	; 0x3c
 800a6fe:	ac06      	add	r4, sp, #24
 800a700:	eb05 0383 	add.w	r3, r5, r3, lsl #2
 800a704:	f8d3 36ac 	ldr.w	r3, [r3, #1708]	; 0x6ac
 800a708:	2120      	movs	r1, #32
 800a70a:	f844 3d0c 	str.w	r3, [r4, #-12]!
 800a70e:	2300      	movs	r3, #0
 800a710:	9400      	str	r4, [sp, #0]
 800a712:	461a      	mov	r2, r3
 800a714:	2005      	movs	r0, #5
 800a716:	f001 fcb5 	bl	800c084 <Show_Str6x8>
 800a71a:	8ff3      	ldrh	r3, [r6, #62]	; 0x3e
 800a71c:	2114      	movs	r1, #20
 800a71e:	eb05 0583 	add.w	r5, r5, r3, lsl #2
 800a722:	f8d5 36ac 	ldr.w	r3, [r5, #1708]	; 0x6ac
 800a726:	2005      	movs	r0, #5
 800a728:	9303      	str	r3, [sp, #12]
 800a72a:	2300      	movs	r3, #0
 800a72c:	9400      	str	r4, [sp, #0]
 800a72e:	461a      	mov	r2, r3
 800a730:	f001 fca8 	bl	800c084 <Show_Str6x8>
 800a734:	b006      	add	sp, #24
 800a736:	bd70      	pop	{r4, r5, r6, pc}
 800a738:	2000000c 	.word	0x2000000c
 800a73c:	08012c0c 	.word	0x08012c0c

0800a740 <ShowMeasureStr>:
 800a740:	b513      	push	{r0, r1, r4, lr}
 800a742:	f647 34ef 	movw	r4, #31727	; 0x7bef
 800a746:	230b      	movs	r3, #11
 800a748:	9400      	str	r4, [sp, #0]
 800a74a:	2226      	movs	r2, #38	; 0x26
 800a74c:	2114      	movs	r1, #20
 800a74e:	2000      	movs	r0, #0
 800a750:	f7fe ffef 	bl	8009732 <DrawRectangle>
 800a754:	9400      	str	r4, [sp, #0]
 800a756:	230b      	movs	r3, #11
 800a758:	2226      	movs	r2, #38	; 0x26
 800a75a:	2120      	movs	r1, #32
 800a75c:	2000      	movs	r0, #0
 800a75e:	f7fe ffe8 	bl	8009732 <DrawRectangle>
 800a762:	230b      	movs	r3, #11
 800a764:	2226      	movs	r2, #38	; 0x26
 800a766:	9400      	str	r4, [sp, #0]
 800a768:	212c      	movs	r1, #44	; 0x2c
 800a76a:	2000      	movs	r0, #0
 800a76c:	f7fe ffe1 	bl	8009732 <DrawRectangle>
 800a770:	4620      	mov	r0, r4
 800a772:	f64f 71ff 	movw	r1, #65535	; 0xffff
 800a776:	f001 fc7e 	bl	800c076 <Set_Color>
 800a77a:	4b52      	ldr	r3, [pc, #328]	; (800a8c4 <ShowMeasureStr+0x184>)
 800a77c:	2200      	movs	r2, #0
 800a77e:	9300      	str	r3, [sp, #0]
 800a780:	2301      	movs	r3, #1
 800a782:	212c      	movs	r1, #44	; 0x2c
 800a784:	4618      	mov	r0, r3
 800a786:	f001 fc7d 	bl	800c084 <Show_Str6x8>
 800a78a:	4620      	mov	r0, r4
 800a78c:	f64f 71ff 	movw	r1, #65535	; 0xffff
 800a790:	f001 fc71 	bl	800c076 <Set_Color>
 800a794:	f7ff ffa8 	bl	800a6e8 <ShowMeasureSourceStr>
 800a798:	9400      	str	r4, [sp, #0]
 800a79a:	2301      	movs	r3, #1
 800a79c:	f44f 728c 	mov.w	r2, #280	; 0x118
 800a7a0:	2137      	movs	r1, #55	; 0x37
 800a7a2:	2028      	movs	r0, #40	; 0x28
 800a7a4:	f7fe ffc5 	bl	8009732 <DrawRectangle>
 800a7a8:	9400      	str	r4, [sp, #0]
 800a7aa:	2301      	movs	r3, #1
 800a7ac:	f44f 728c 	mov.w	r2, #280	; 0x118
 800a7b0:	212b      	movs	r1, #43	; 0x2b
 800a7b2:	2028      	movs	r0, #40	; 0x28
 800a7b4:	f7fe ffbd 	bl	8009732 <DrawRectangle>
 800a7b8:	9400      	str	r4, [sp, #0]
 800a7ba:	2301      	movs	r3, #1
 800a7bc:	f44f 728c 	mov.w	r2, #280	; 0x118
 800a7c0:	211f      	movs	r1, #31
 800a7c2:	2028      	movs	r0, #40	; 0x28
 800a7c4:	f7fe ffb5 	bl	8009732 <DrawRectangle>
 800a7c8:	9400      	str	r4, [sp, #0]
 800a7ca:	2301      	movs	r3, #1
 800a7cc:	f44f 728c 	mov.w	r2, #280	; 0x118
 800a7d0:	2113      	movs	r1, #19
 800a7d2:	2028      	movs	r0, #40	; 0x28
 800a7d4:	f7fe ffad 	bl	8009732 <DrawRectangle>
 800a7d8:	9400      	str	r4, [sp, #0]
 800a7da:	2325      	movs	r3, #37	; 0x25
 800a7dc:	2201      	movs	r2, #1
 800a7de:	2113      	movs	r1, #19
 800a7e0:	2027      	movs	r0, #39	; 0x27
 800a7e2:	f7fe ffa6 	bl	8009732 <DrawRectangle>
 800a7e6:	9400      	str	r4, [sp, #0]
 800a7e8:	2324      	movs	r3, #36	; 0x24
 800a7ea:	2201      	movs	r2, #1
 800a7ec:	2113      	movs	r1, #19
 800a7ee:	205b      	movs	r0, #91	; 0x5b
 800a7f0:	f7fe ff9f 	bl	8009732 <DrawRectangle>
 800a7f4:	9400      	str	r4, [sp, #0]
 800a7f6:	2324      	movs	r3, #36	; 0x24
 800a7f8:	2201      	movs	r2, #1
 800a7fa:	2113      	movs	r1, #19
 800a7fc:	2091      	movs	r0, #145	; 0x91
 800a7fe:	f7fe ff98 	bl	8009732 <DrawRectangle>
 800a802:	9400      	str	r4, [sp, #0]
 800a804:	2324      	movs	r3, #36	; 0x24
 800a806:	2201      	movs	r2, #1
 800a808:	2113      	movs	r1, #19
 800a80a:	20c7      	movs	r0, #199	; 0xc7
 800a80c:	f7fe ff91 	bl	8009732 <DrawRectangle>
 800a810:	9400      	str	r4, [sp, #0]
 800a812:	2324      	movs	r3, #36	; 0x24
 800a814:	2201      	movs	r2, #1
 800a816:	2113      	movs	r1, #19
 800a818:	20fd      	movs	r0, #253	; 0xfd
 800a81a:	f7fe ff8a 	bl	8009732 <DrawRectangle>
 800a81e:	2325      	movs	r3, #37	; 0x25
 800a820:	2201      	movs	r2, #1
 800a822:	9400      	str	r4, [sp, #0]
 800a824:	2113      	movs	r1, #19
 800a826:	f240 103f 	movw	r0, #319	; 0x13f
 800a82a:	f7fe ff82 	bl	8009732 <DrawRectangle>
 800a82e:	f64f 71ff 	movw	r1, #65535	; 0xffff
 800a832:	2000      	movs	r0, #0
 800a834:	f001 fc1f 	bl	800c076 <Set_Color>
 800a838:	4b23      	ldr	r3, [pc, #140]	; (800a8c8 <ShowMeasureStr+0x188>)
 800a83a:	212c      	movs	r1, #44	; 0x2c
 800a83c:	9300      	str	r3, [sp, #0]
 800a83e:	2300      	movs	r3, #0
 800a840:	2028      	movs	r0, #40	; 0x28
 800a842:	461a      	mov	r2, r3
 800a844:	f001 fc1e 	bl	800c084 <Show_Str6x8>
 800a848:	4b20      	ldr	r3, [pc, #128]	; (800a8cc <ShowMeasureStr+0x18c>)
 800a84a:	212c      	movs	r1, #44	; 0x2c
 800a84c:	9300      	str	r3, [sp, #0]
 800a84e:	2300      	movs	r3, #0
 800a850:	205e      	movs	r0, #94	; 0x5e
 800a852:	461a      	mov	r2, r3
 800a854:	f001 fc16 	bl	800c084 <Show_Str6x8>
 800a858:	4b1d      	ldr	r3, [pc, #116]	; (800a8d0 <ShowMeasureStr+0x190>)
 800a85a:	212c      	movs	r1, #44	; 0x2c
 800a85c:	9300      	str	r3, [sp, #0]
 800a85e:	2300      	movs	r3, #0
 800a860:	2094      	movs	r0, #148	; 0x94
 800a862:	461a      	mov	r2, r3
 800a864:	f001 fc0e 	bl	800c084 <Show_Str6x8>
 800a868:	4b1a      	ldr	r3, [pc, #104]	; (800a8d4 <ShowMeasureStr+0x194>)
 800a86a:	212c      	movs	r1, #44	; 0x2c
 800a86c:	9300      	str	r3, [sp, #0]
 800a86e:	2300      	movs	r3, #0
 800a870:	20ca      	movs	r0, #202	; 0xca
 800a872:	461a      	mov	r2, r3
 800a874:	f001 fc06 	bl	800c084 <Show_Str6x8>
 800a878:	4b17      	ldr	r3, [pc, #92]	; (800a8d8 <ShowMeasureStr+0x198>)
 800a87a:	2200      	movs	r2, #0
 800a87c:	9300      	str	r3, [sp, #0]
 800a87e:	212c      	movs	r1, #44	; 0x2c
 800a880:	2301      	movs	r3, #1
 800a882:	f44f 7080 	mov.w	r0, #256	; 0x100
 800a886:	f001 fbfd 	bl	800c084 <Show_Str6x8>
 800a88a:	4b14      	ldr	r3, [pc, #80]	; (800a8dc <ShowMeasureStr+0x19c>)
 800a88c:	2200      	movs	r2, #0
 800a88e:	9300      	str	r3, [sp, #0]
 800a890:	2120      	movs	r1, #32
 800a892:	2301      	movs	r3, #1
 800a894:	f44f 7080 	mov.w	r0, #256	; 0x100
 800a898:	f001 fbf4 	bl	800c084 <Show_Str6x8>
 800a89c:	4b10      	ldr	r3, [pc, #64]	; (800a8e0 <ShowMeasureStr+0x1a0>)
 800a89e:	2220      	movs	r2, #32
 800a8a0:	9300      	str	r3, [sp, #0]
 800a8a2:	2114      	movs	r1, #20
 800a8a4:	2301      	movs	r3, #1
 800a8a6:	f44f 7080 	mov.w	r0, #256	; 0x100
 800a8aa:	f001 fbeb 	bl	800c084 <Show_Str6x8>
 800a8ae:	4b0d      	ldr	r3, [pc, #52]	; (800a8e4 <ShowMeasureStr+0x1a4>)
 800a8b0:	2200      	movs	r2, #0
 800a8b2:	9300      	str	r3, [sp, #0]
 800a8b4:	2114      	movs	r1, #20
 800a8b6:	2301      	movs	r3, #1
 800a8b8:	f44f 7083 	mov.w	r0, #262	; 0x106
 800a8bc:	f001 fbe2 	bl	800c084 <Show_Str6x8>
 800a8c0:	b002      	add	sp, #8
 800a8c2:	bd10      	pop	{r4, pc}
 800a8c4:	080138b5 	.word	0x080138b5
 800a8c8:	080138bc 	.word	0x080138bc
 800a8cc:	080138c4 	.word	0x080138c4
 800a8d0:	080138cc 	.word	0x080138cc
 800a8d4:	080138d4 	.word	0x080138d4
 800a8d8:	080138dc 	.word	0x080138dc
 800a8dc:	080138e6 	.word	0x080138e6
 800a8e0:	080138f0 	.word	0x080138f0
 800a8e4:	080138f2 	.word	0x080138f2

0800a8e8 <ShowSmallWins>:
 800a8e8:	b573      	push	{r0, r1, r4, r5, r6, lr}
 800a8ea:	2308      	movs	r3, #8
 800a8ec:	2400      	movs	r4, #0
 800a8ee:	f44f 72a0 	mov.w	r2, #320	; 0x140
 800a8f2:	9400      	str	r4, [sp, #0]
 800a8f4:	4619      	mov	r1, r3
 800a8f6:	4620      	mov	r0, r4
 800a8f8:	f7fe ff1b 	bl	8009732 <DrawRectangle>
 800a8fc:	4e0f      	ldr	r6, [pc, #60]	; (800a93c <ShowSmallWins+0x54>)
 800a8fe:	5da3      	ldrb	r3, [r4, r6]
 800a900:	b2a0      	uxth	r0, r4
 800a902:	b963      	cbnz	r3, 800a91e <ShowSmallWins+0x36>
 800a904:	210c      	movs	r1, #12
 800a906:	f001 f915 	bl	800bb34 <Set_Posi>
 800a90a:	f64b 50e0 	movw	r0, #48608	; 0xbde0
 800a90e:	f001 f91d 	bl	800bb4c <Set_Pixel>
 800a912:	3401      	adds	r4, #1
 800a914:	f5b4 7fa0 	cmp.w	r4, #320	; 0x140
 800a918:	d1f1      	bne.n	800a8fe <ShowSmallWins+0x16>
 800a91a:	b002      	add	sp, #8
 800a91c:	bd70      	pop	{r4, r5, r6, pc}
 800a91e:	2b01      	cmp	r3, #1
 800a920:	d1f7      	bne.n	800a912 <ShowSmallWins+0x2a>
 800a922:	2108      	movs	r1, #8
 800a924:	f001 f906 	bl	800bb34 <Set_Posi>
 800a928:	2508      	movs	r5, #8
 800a92a:	3d01      	subs	r5, #1
 800a92c:	f64b 50e0 	movw	r0, #48608	; 0xbde0
 800a930:	b2ad      	uxth	r5, r5
 800a932:	f001 f90b 	bl	800bb4c <Set_Pixel>
 800a936:	2d00      	cmp	r5, #0
 800a938:	d1f7      	bne.n	800a92a <ShowSmallWins+0x42>
 800a93a:	e7ea      	b.n	800a912 <ShowSmallWins+0x2a>
 800a93c:	20000728 	.word	0x20000728

0800a940 <SmallWinsInit>:
 800a940:	b507      	push	{r0, r1, r2, lr}
 800a942:	2308      	movs	r3, #8
 800a944:	2000      	movs	r0, #0
 800a946:	f44f 72a0 	mov.w	r2, #320	; 0x140
 800a94a:	9000      	str	r0, [sp, #0]
 800a94c:	4619      	mov	r1, r3
 800a94e:	f7fe fef0 	bl	8009732 <DrawRectangle>
 800a952:	b003      	add	sp, #12
 800a954:	f85d fb04 	ldr.w	pc, [sp], #4

0800a958 <ShowAllMenu>:
 800a958:	b513      	push	{r0, r1, r4, lr}
 800a95a:	f643 14e7 	movw	r4, #14823	; 0x39e7
 800a95e:	2314      	movs	r3, #20
 800a960:	9400      	str	r4, [sp, #0]
 800a962:	f44f 72a0 	mov.w	r2, #320	; 0x140
 800a966:	21dc      	movs	r1, #220	; 0xdc
 800a968:	2000      	movs	r0, #0
 800a96a:	f7fe fee2 	bl	8009732 <DrawRectangle>
 800a96e:	9400      	str	r4, [sp, #0]
 800a970:	2303      	movs	r3, #3
 800a972:	f44f 72a0 	mov.w	r2, #320	; 0x140
 800a976:	2101      	movs	r1, #1
 800a978:	2000      	movs	r0, #0
 800a97a:	f7fe feda 	bl	8009732 <DrawRectangle>
 800a97e:	f647 33ef 	movw	r3, #31727	; 0x7bef
 800a982:	2226      	movs	r2, #38	; 0x26
 800a984:	2138      	movs	r1, #56	; 0x38
 800a986:	9300      	str	r3, [sp, #0]
 800a988:	2000      	movs	r0, #0
 800a98a:	230d      	movs	r3, #13
 800a98c:	f7fe fed1 	bl	8009732 <DrawRectangle>
 800a990:	2000      	movs	r0, #0
 800a992:	f7ff fa23 	bl	8009ddc <ShowSmplStatus>
 800a996:	f7ff fae1 	bl	8009f5c <ShowBattery>
 800a99a:	f7ff fb57 	bl	800a04c <ShowTopTitle>
 800a99e:	f7fe feee 	bl	800977e <ShowLeftTitle>
 800a9a2:	f7fe fa20 	bl	8008de6 <DrawTriggerIco>
 800a9a6:	f7ff fd8d 	bl	800a4c4 <ShowTimeBaseStr>
 800a9aa:	4b09      	ldr	r3, [pc, #36]	; (800a9d0 <ShowAllMenu+0x78>)
 800a9ac:	f44f 728c 	mov.w	r2, #280	; 0x118
 800a9b0:	7d1b      	ldrb	r3, [r3, #20]
 800a9b2:	2137      	movs	r1, #55	; 0x37
 800a9b4:	2029      	movs	r0, #41	; 0x29
 800a9b6:	f7ff fcfd 	bl	800a3b4 <ShowScaleRuleTime>
 800a9ba:	f7ff fec1 	bl	800a740 <ShowMeasureStr>
 800a9be:	f7ff fdf3 	bl	800a5a8 <ShowTimeMarkValue>
 800a9c2:	f001 ff71 	bl	800c8a8 <ShowMeasureValue>
 800a9c6:	b002      	add	sp, #8
 800a9c8:	e8bd 4010 	ldmia.w	sp!, {r4, lr}
 800a9cc:	f7ff bfb8 	b.w	800a940 <SmallWinsInit>
 800a9d0:	2000000c 	.word	0x2000000c

0800a9d4 <ProcessSmallWins>:
 800a9d4:	e92d 4ff7 	stmdb	sp!, {r0, r1, r2, r4, r5, r6, r7, r8, r9, sl, fp, lr}
 800a9d8:	f8df b0c8 	ldr.w	fp, [pc, #200]	; 800aaa4 <ProcessSmallWins+0xd0>
 800a9dc:	f44f 72a0 	mov.w	r2, #320	; 0x140
 800a9e0:	e9db 4500 	ldrd	r4, r5, [fp]
 800a9e4:	2300      	movs	r3, #0
 800a9e6:	4620      	mov	r0, r4
 800a9e8:	4629      	mov	r1, r5
 800a9ea:	f007 ff19 	bl	8012820 <__aeabi_uldivmod>
 800a9ee:	4620      	mov	r0, r4
 800a9f0:	4313      	orrs	r3, r2
 800a9f2:	4629      	mov	r1, r5
 800a9f4:	f04f 0300 	mov.w	r3, #0
 800a9f8:	f44f 72a0 	mov.w	r2, #320	; 0x140
 800a9fc:	bf14      	ite	ne
 800a9fe:	2601      	movne	r6, #1
 800aa00:	2600      	moveq	r6, #0
 800aa02:	f007 ff0d 	bl	8012820 <__aeabi_uldivmod>
 800aa06:	2700      	movs	r7, #0
 800aa08:	f04f 0a0b 	mov.w	sl, #11
 800aa0c:	1833      	adds	r3, r6, r0
 800aa0e:	eb47 0401 	adc.w	r4, r7, r1
 800aa12:	e9cd 3400 	strd	r3, r4, [sp]
 800aa16:	465e      	mov	r6, fp
 800aa18:	f04f 0800 	mov.w	r8, #0
 800aa1c:	f04f 0900 	mov.w	r9, #0
 800aa20:	4655      	mov	r5, sl
 800aa22:	2401      	movs	r4, #1
 800aa24:	f04f 0b00 	mov.w	fp, #0
 800aa28:	9b00      	ldr	r3, [sp, #0]
 800aa2a:	b2a0      	uxth	r0, r4
 800aa2c:	fba0 2303 	umull	r2, r3, r0, r3
 800aa30:	9f01      	ldr	r7, [sp, #4]
 800aa32:	fb00 3307 	mla	r3, r0, r7, r3
 800aa36:	4599      	cmp	r9, r3
 800aa38:	bf08      	it	eq
 800aa3a:	4590      	cmpeq	r8, r2
 800aa3c:	d321      	bcc.n	800aa82 <ProcessSmallWins+0xae>
 800aa3e:	4a18      	ldr	r2, [pc, #96]	; (800aaa0 <ProcessSmallWins+0xcc>)
 800aa40:	1e63      	subs	r3, r4, #1
 800aa42:	4555      	cmp	r5, sl
 800aa44:	eb02 0a03 	add.w	sl, r2, r3
 800aa48:	d102      	bne.n	800aa50 <ProcessSmallWins+0x7c>
 800aa4a:	f88a b4e8 	strb.w	fp, [sl, #1256]	; 0x4e8
 800aa4e:	e008      	b.n	800aa62 <ProcessSmallWins+0x8e>
 800aa50:	f04f 0301 	mov.w	r3, #1
 800aa54:	4628      	mov	r0, r5
 800aa56:	f88a 34e8 	strb.w	r3, [sl, #1256]	; 0x4e8
 800aa5a:	f001 fd29 	bl	800c4b0 <TransStatusInfo>
 800aa5e:	0743      	lsls	r3, r0, #29
 800aa60:	d4f3      	bmi.n	800aa4a <ProcessSmallWins+0x76>
 800aa62:	46aa      	mov	sl, r5
 800aa64:	3401      	adds	r4, #1
 800aa66:	b2a4      	uxth	r4, r4
 800aa68:	f240 1341 	movw	r3, #321	; 0x141
 800aa6c:	429c      	cmp	r4, r3
 800aa6e:	d1db      	bne.n	800aa28 <ProcessSmallWins+0x54>
 800aa70:	e9d6 2300 	ldrd	r2, r3, [r6]
 800aa74:	4313      	orrs	r3, r2
 800aa76:	d00e      	beq.n	800aa96 <ProcessSmallWins+0xc2>
 800aa78:	b003      	add	sp, #12
 800aa7a:	e8bd 4ff0 	ldmia.w	sp!, {r4, r5, r6, r7, r8, r9, sl, fp, lr}
 800aa7e:	f7ff bf33 	b.w	800a8e8 <ShowSmallWins>
 800aa82:	4628      	mov	r0, r5
 800aa84:	f001 fd1a 	bl	800c4bc <TransformTime>
 800aa88:	3501      	adds	r5, #1
 800aa8a:	eb18 0800 	adds.w	r8, r8, r0
 800aa8e:	f149 0900 	adc.w	r9, r9, #0
 800aa92:	b2ad      	uxth	r5, r5
 800aa94:	e7e8      	b.n	800aa68 <ProcessSmallWins+0x94>
 800aa96:	b003      	add	sp, #12
 800aa98:	e8bd 4ff0 	ldmia.w	sp!, {r4, r5, r6, r7, r8, r9, sl, fp, lr}
 800aa9c:	f7ff bf50 	b.w	800a940 <SmallWinsInit>
 800aaa0:	20000240 	.word	0x20000240
 800aaa4:	20004c30 	.word	0x20004c30

0800aaa8 <Show_PIO_Name>:
 800aaa8:	e92d 41ff 	stmdb	sp!, {r0, r1, r2, r3, r4, r5, r6, r7, r8, lr}
 800aaac:	2a03      	cmp	r2, #3
 800aaae:	d820      	bhi.n	800aaf2 <Show_PIO_Name+0x4a>
 800aab0:	e8df f002 	tbb	[pc, r2]
 800aab4:	5c3f2202 	.word	0x5c3f2202
 800aab8:	2600      	movs	r6, #0
 800aaba:	f04f 080e 	mov.w	r8, #14
 800aabe:	312e      	adds	r1, #46	; 0x2e
 800aac0:	1d85      	adds	r5, r0, #6
 800aac2:	4f39      	ldr	r7, [pc, #228]	; (800aba8 <Show_PIO_Name+0x100>)
 800aac4:	b28c      	uxth	r4, r1
 800aac6:	b2ad      	uxth	r5, r5
 800aac8:	fb08 7306 	mla	r3, r8, r6, r7
 800aacc:	f04f 0c01 	mov.w	ip, #1
 800aad0:	9302      	str	r3, [sp, #8]
 800aad2:	2300      	movs	r3, #0
 800aad4:	4621      	mov	r1, r4
 800aad6:	e9cd 3c00 	strd	r3, ip, [sp]
 800aada:	f647 32ef 	movw	r2, #31727	; 0x7bef
 800aade:	f643 13e7 	movw	r3, #14823	; 0x39e7
 800aae2:	4628      	mov	r0, r5
 800aae4:	3601      	adds	r6, #1
 800aae6:	f001 f94f 	bl	800bd88 <Disp_Str6x8>
 800aaea:	3c0e      	subs	r4, #14
 800aaec:	2e04      	cmp	r6, #4
 800aaee:	b2a4      	uxth	r4, r4
 800aaf0:	d1ea      	bne.n	800aac8 <Show_PIO_Name+0x20>
 800aaf2:	b004      	add	sp, #16
 800aaf4:	e8bd 81f0 	ldmia.w	sp!, {r4, r5, r6, r7, r8, pc}
 800aaf8:	2600      	movs	r6, #0
 800aafa:	f04f 080e 	mov.w	r8, #14
 800aafe:	312e      	adds	r1, #46	; 0x2e
 800ab00:	1d85      	adds	r5, r0, #6
 800ab02:	4f2a      	ldr	r7, [pc, #168]	; (800abac <Show_PIO_Name+0x104>)
 800ab04:	b28c      	uxth	r4, r1
 800ab06:	b2ad      	uxth	r5, r5
 800ab08:	fb08 7306 	mla	r3, r8, r6, r7
 800ab0c:	2001      	movs	r0, #1
 800ab0e:	9302      	str	r3, [sp, #8]
 800ab10:	2300      	movs	r3, #0
 800ab12:	4621      	mov	r1, r4
 800ab14:	e9cd 3000 	strd	r3, r0, [sp]
 800ab18:	f647 32ef 	movw	r2, #31727	; 0x7bef
 800ab1c:	f643 13e7 	movw	r3, #14823	; 0x39e7
 800ab20:	4628      	mov	r0, r5
 800ab22:	3601      	adds	r6, #1
 800ab24:	f001 f930 	bl	800bd88 <Disp_Str6x8>
 800ab28:	3c0e      	subs	r4, #14
 800ab2a:	2e04      	cmp	r6, #4
 800ab2c:	b2a4      	uxth	r4, r4
 800ab2e:	d1eb      	bne.n	800ab08 <Show_PIO_Name+0x60>
 800ab30:	e7df      	b.n	800aaf2 <Show_PIO_Name+0x4a>
 800ab32:	2600      	movs	r6, #0
 800ab34:	f04f 080e 	mov.w	r8, #14
 800ab38:	312e      	adds	r1, #46	; 0x2e
 800ab3a:	1d85      	adds	r5, r0, #6
 800ab3c:	4f1c      	ldr	r7, [pc, #112]	; (800abb0 <Show_PIO_Name+0x108>)
 800ab3e:	b28c      	uxth	r4, r1
 800ab40:	b2ad      	uxth	r5, r5
 800ab42:	fb08 7306 	mla	r3, r8, r6, r7
 800ab46:	2101      	movs	r1, #1
 800ab48:	9302      	str	r3, [sp, #8]
 800ab4a:	2300      	movs	r3, #0
 800ab4c:	f647 32ef 	movw	r2, #31727	; 0x7bef
 800ab50:	e9cd 3100 	strd	r3, r1, [sp]
 800ab54:	4628      	mov	r0, r5
 800ab56:	4621      	mov	r1, r4
 800ab58:	f643 13e7 	movw	r3, #14823	; 0x39e7
 800ab5c:	3601      	adds	r6, #1
 800ab5e:	f001 f913 	bl	800bd88 <Disp_Str6x8>
 800ab62:	3c0e      	subs	r4, #14
 800ab64:	2e04      	cmp	r6, #4
 800ab66:	b2a4      	uxth	r4, r4
 800ab68:	d1eb      	bne.n	800ab42 <Show_PIO_Name+0x9a>
 800ab6a:	e7c2      	b.n	800aaf2 <Show_PIO_Name+0x4a>
 800ab6c:	2600      	movs	r6, #0
 800ab6e:	f04f 080e 	mov.w	r8, #14
 800ab72:	312e      	adds	r1, #46	; 0x2e
 800ab74:	1d85      	adds	r5, r0, #6
 800ab76:	4f0f      	ldr	r7, [pc, #60]	; (800abb4 <Show_PIO_Name+0x10c>)
 800ab78:	b28c      	uxth	r4, r1
 800ab7a:	b2ad      	uxth	r5, r5
 800ab7c:	fb08 7306 	mla	r3, r8, r6, r7
 800ab80:	2201      	movs	r2, #1
 800ab82:	9302      	str	r3, [sp, #8]
 800ab84:	2300      	movs	r3, #0
 800ab86:	4621      	mov	r1, r4
 800ab88:	e9cd 3200 	strd	r3, r2, [sp]
 800ab8c:	4628      	mov	r0, r5
 800ab8e:	f643 13e7 	movw	r3, #14823	; 0x39e7
 800ab92:	f647 32ef 	movw	r2, #31727	; 0x7bef
 800ab96:	3601      	adds	r6, #1
 800ab98:	f001 f8f6 	bl	800bd88 <Disp_Str6x8>
 800ab9c:	3c0e      	subs	r4, #14
 800ab9e:	2e04      	cmp	r6, #4
 800aba0:	b2a4      	uxth	r4, r4
 800aba2:	d1eb      	bne.n	800ab7c <Show_PIO_Name+0xd4>
 800aba4:	e7a5      	b.n	800aaf2 <Show_PIO_Name+0x4a>
 800aba6:	bf00      	nop
 800aba8:	080132c8 	.word	0x080132c8
 800abac:	08013300 	.word	0x08013300
 800abb0:	08013338 	.word	0x08013338
 800abb4:	08013370 	.word	0x08013370

0800abb8 <ShowPopWindow>:
 800abb8:	e92d 4ff0 	stmdb	sp!, {r4, r5, r6, r7, r8, r9, sl, fp, lr}
 800abbc:	460d      	mov	r5, r1
 800abbe:	461e      	mov	r6, r3
 800abc0:	f04f 0b00 	mov.w	fp, #0
 800abc4:	b0a1      	sub	sp, #132	; 0x84
 800abc6:	f8bd 30a8 	ldrh.w	r3, [sp, #168]	; 0xa8
 800abca:	f10d 0824 	add.w	r8, sp, #36	; 0x24
 800abce:	9204      	str	r2, [sp, #16]
 800abd0:	4607      	mov	r7, r0
 800abd2:	225a      	movs	r2, #90	; 0x5a
 800abd4:	2100      	movs	r1, #0
 800abd6:	4640      	mov	r0, r8
 800abd8:	9305      	str	r3, [sp, #20]
 800abda:	f89d a0b0 	ldrb.w	sl, [sp, #176]	; 0xb0
 800abde:	f007 ffac 	bl	8012b3a <memset>
 800abe2:	4bba      	ldr	r3, [pc, #744]	; (800aecc <ShowPopWindow+0x314>)
 800abe4:	1bad      	subs	r5, r5, r6
 800abe6:	b2ad      	uxth	r5, r5
 800abe8:	781b      	ldrb	r3, [r3, #0]
 800abea:	ac06      	add	r4, sp, #24
 800abec:	f1a5 0904 	sub.w	r9, r5, #4
 800abf0:	f8cd b018 	str.w	fp, [sp, #24]
 800abf4:	fa1f f989 	uxth.w	r9, r9
 800abf8:	f8c4 b004 	str.w	fp, [r4, #4]
 800abfc:	f8a4 b008 	strh.w	fp, [r4, #8]
 800ac00:	2b00      	cmp	r3, #0
 800ac02:	f000 80ab 	beq.w	800ad5c <ShowPopWindow+0x1a4>
 800ac06:	9a04      	ldr	r2, [sp, #16]
 800ac08:	f8bd c0ac 	ldrh.w	ip, [sp, #172]	; 0xac
 800ac0c:	1eb3      	subs	r3, r6, #2
 800ac0e:	3a02      	subs	r2, #2
 800ac10:	1ee9      	subs	r1, r5, #3
 800ac12:	1c78      	adds	r0, r7, #1
 800ac14:	f8cd c000 	str.w	ip, [sp]
 800ac18:	b29b      	uxth	r3, r3
 800ac1a:	b292      	uxth	r2, r2
 800ac1c:	b289      	uxth	r1, r1
 800ac1e:	b280      	uxth	r0, r0
 800ac20:	f7fe fd87 	bl	8009732 <DrawRectangle>
 800ac24:	9b05      	ldr	r3, [sp, #20]
 800ac26:	2201      	movs	r2, #1
 800ac28:	9300      	str	r3, [sp, #0]
 800ac2a:	4649      	mov	r1, r9
 800ac2c:	4633      	mov	r3, r6
 800ac2e:	4638      	mov	r0, r7
 800ac30:	f7fe fd7f 	bl	8009732 <DrawRectangle>
 800ac34:	9b04      	ldr	r3, [sp, #16]
 800ac36:	2201      	movs	r2, #1
 800ac38:	1e58      	subs	r0, r3, #1
 800ac3a:	9b05      	ldr	r3, [sp, #20]
 800ac3c:	4438      	add	r0, r7
 800ac3e:	9300      	str	r3, [sp, #0]
 800ac40:	4649      	mov	r1, r9
 800ac42:	4633      	mov	r3, r6
 800ac44:	b280      	uxth	r0, r0
 800ac46:	f7fe fd74 	bl	8009732 <DrawRectangle>
 800ac4a:	9b05      	ldr	r3, [sp, #20]
 800ac4c:	9a04      	ldr	r2, [sp, #16]
 800ac4e:	9300      	str	r3, [sp, #0]
 800ac50:	4649      	mov	r1, r9
 800ac52:	2301      	movs	r3, #1
 800ac54:	4638      	mov	r0, r7
 800ac56:	f7fe fd6c 	bl	8009732 <DrawRectangle>
 800ac5a:	9b05      	ldr	r3, [sp, #20]
 800ac5c:	1e71      	subs	r1, r6, #1
 800ac5e:	4449      	add	r1, r9
 800ac60:	9300      	str	r3, [sp, #0]
 800ac62:	9a04      	ldr	r2, [sp, #16]
 800ac64:	2305      	movs	r3, #5
 800ac66:	b289      	uxth	r1, r1
 800ac68:	4638      	mov	r0, r7
 800ac6a:	f7fe fd62 	bl	8009732 <DrawRectangle>
 800ac6e:	f1ba 0f01 	cmp.w	sl, #1
 800ac72:	d173      	bne.n	800ad5c <ShowPopWindow+0x1a4>
 800ac74:	4d96      	ldr	r5, [pc, #600]	; (800aed0 <ShowPopWindow+0x318>)
 800ac76:	4b97      	ldr	r3, [pc, #604]	; (800aed4 <ShowPopWindow+0x31c>)
 800ac78:	8ba8      	ldrh	r0, [r5, #28]
 800ac7a:	229a      	movs	r2, #154	; 0x9a
 800ac7c:	3028      	adds	r0, #40	; 0x28
 800ac7e:	2142      	movs	r1, #66	; 0x42
 800ac80:	b280      	uxth	r0, r0
 800ac82:	f8cd b000 	str.w	fp, [sp]
 800ac86:	f001 f9d5 	bl	800c034 <RW_Row_Color>
 800ac8a:	8ae8      	ldrh	r0, [r5, #22]
 800ac8c:	4b92      	ldr	r3, [pc, #584]	; (800aed8 <ShowPopWindow+0x320>)
 800ac8e:	3028      	adds	r0, #40	; 0x28
 800ac90:	229a      	movs	r2, #154	; 0x9a
 800ac92:	2142      	movs	r1, #66	; 0x42
 800ac94:	b280      	uxth	r0, r0
 800ac96:	f8cd b000 	str.w	fp, [sp]
 800ac9a:	f001 f9cb 	bl	800c034 <RW_Row_Color>
 800ac9e:	8b28      	ldrh	r0, [r5, #24]
 800aca0:	4b8e      	ldr	r3, [pc, #568]	; (800aedc <ShowPopWindow+0x324>)
 800aca2:	3028      	adds	r0, #40	; 0x28
 800aca4:	229a      	movs	r2, #154	; 0x9a
 800aca6:	2142      	movs	r1, #66	; 0x42
 800aca8:	b280      	uxth	r0, r0
 800acaa:	f8cd b000 	str.w	fp, [sp]
 800acae:	f001 f9c1 	bl	800c034 <RW_Row_Color>
 800acb2:	8be8      	ldrh	r0, [r5, #30]
 800acb4:	4b8a      	ldr	r3, [pc, #552]	; (800aee0 <ShowPopWindow+0x328>)
 800acb6:	3028      	adds	r0, #40	; 0x28
 800acb8:	229a      	movs	r2, #154	; 0x9a
 800acba:	2142      	movs	r1, #66	; 0x42
 800acbc:	b280      	uxth	r0, r0
 800acbe:	f8cd b000 	str.w	fp, [sp]
 800acc2:	f001 f9b7 	bl	800c034 <RW_Row_Color>
 800acc6:	f44f 63fc 	mov.w	r3, #2016	; 0x7e0
 800acca:	f64f 76ff 	movw	r6, #65535	; 0xffff
 800acce:	8ba8      	ldrh	r0, [r5, #28]
 800acd0:	4652      	mov	r2, sl
 800acd2:	3028      	adds	r0, #40	; 0x28
 800acd4:	9300      	str	r3, [sp, #0]
 800acd6:	2142      	movs	r1, #66	; 0x42
 800acd8:	239a      	movs	r3, #154	; 0x9a
 800acda:	b280      	uxth	r0, r0
 800acdc:	f7fe fc2e 	bl	800953c <DrawDottedLine>
 800ace0:	8ae8      	ldrh	r0, [r5, #22]
 800ace2:	239a      	movs	r3, #154	; 0x9a
 800ace4:	3028      	adds	r0, #40	; 0x28
 800ace6:	4652      	mov	r2, sl
 800ace8:	2142      	movs	r1, #66	; 0x42
 800acea:	9600      	str	r6, [sp, #0]
 800acec:	b280      	uxth	r0, r0
 800acee:	f7fe fc25 	bl	800953c <DrawDottedLine>
 800acf2:	8b28      	ldrh	r0, [r5, #24]
 800acf4:	239a      	movs	r3, #154	; 0x9a
 800acf6:	3028      	adds	r0, #40	; 0x28
 800acf8:	4652      	mov	r2, sl
 800acfa:	2142      	movs	r1, #66	; 0x42
 800acfc:	9600      	str	r6, [sp, #0]
 800acfe:	b280      	uxth	r0, r0
 800ad00:	f7fe fc1c 	bl	800953c <DrawDottedLine>
 800ad04:	f240 531f 	movw	r3, #1311	; 0x51f
 800ad08:	8be8      	ldrh	r0, [r5, #30]
 800ad0a:	4652      	mov	r2, sl
 800ad0c:	3028      	adds	r0, #40	; 0x28
 800ad0e:	9300      	str	r3, [sp, #0]
 800ad10:	2142      	movs	r1, #66	; 0x42
 800ad12:	239a      	movs	r3, #154	; 0x9a
 800ad14:	b280      	uxth	r0, r0
 800ad16:	f7fe fc11 	bl	800953c <DrawDottedLine>
 800ad1a:	4a6c      	ldr	r2, [pc, #432]	; (800aecc <ShowPopWindow+0x314>)
 800ad1c:	4d71      	ldr	r5, [pc, #452]	; (800aee4 <ShowPopWindow+0x32c>)
 800ad1e:	7893      	ldrb	r3, [r2, #2]
 800ad20:	9204      	str	r2, [sp, #16]
 800ad22:	442b      	add	r3, r5
 800ad24:	f893 a004 	ldrb.w	sl, [r3, #4]
 800ad28:	4e69      	ldr	r6, [pc, #420]	; (800aed0 <ShowPopWindow+0x318>)
 800ad2a:	f1ba 0f01 	cmp.w	sl, #1
 800ad2e:	f885 a628 	strb.w	sl, [r5, #1576]	; 0x628
 800ad32:	d168      	bne.n	800ae06 <ShowPopWindow+0x24e>
 800ad34:	f44f 729a 	mov.w	r2, #308	; 0x134
 800ad38:	f105 0118 	add.w	r1, r5, #24
 800ad3c:	f205 602a 	addw	r0, r5, #1578	; 0x62a
 800ad40:	f007 fef0 	bl	8012b24 <memcpy>
 800ad44:	f8b5 375e 	ldrh.w	r3, [r5, #1886]	; 0x75e
 800ad48:	8af2      	ldrh	r2, [r6, #22]
 800ad4a:	f103 0028 	add.w	r0, r3, #40	; 0x28
 800ad4e:	429a      	cmp	r2, r3
 800ad50:	b280      	uxth	r0, r0
 800ad52:	f040 81ae 	bne.w	800b0b2 <ShowPopWindow+0x4fa>
 800ad56:	f64f 73ff 	movw	r3, #65535	; 0xffff
 800ad5a:	e1a5      	b.n	800b0a8 <ShowPopWindow+0x4f0>
 800ad5c:	f1ba 0f06 	cmp.w	sl, #6
 800ad60:	f200 833e 	bhi.w	800b3e0 <ShowPopWindow+0x828>
 800ad64:	a301      	add	r3, pc, #4	; (adr r3, 800ad6c <ShowPopWindow+0x1b4>)
 800ad66:	f853 f02a 	ldr.w	pc, [r3, sl, lsl #2]
 800ad6a:	bf00      	nop
 800ad6c:	0800ad89 	.word	0x0800ad89
 800ad70:	0800ad1b 	.word	0x0800ad1b
 800ad74:	0800b22d 	.word	0x0800b22d
 800ad78:	0800b449 	.word	0x0800b449
 800ad7c:	0800b4a7 	.word	0x0800b4a7
 800ad80:	0800b56d 	.word	0x0800b56d
 800ad84:	0800b63b 	.word	0x0800b63b
 800ad88:	4b57      	ldr	r3, [pc, #348]	; (800aee8 <ShowPopWindow+0x330>)
 800ad8a:	2607      	movs	r6, #7
 800ad8c:	6818      	ldr	r0, [r3, #0]
 800ad8e:	4c50      	ldr	r4, [pc, #320]	; (800aed0 <ShowPopWindow+0x318>)
 800ad90:	9009      	str	r0, [sp, #36]	; 0x24
 800ad92:	2008      	movs	r0, #8
 800ad94:	799b      	ldrb	r3, [r3, #6]
 800ad96:	4955      	ldr	r1, [pc, #340]	; (800aeec <ShowPopWindow+0x334>)
 800ad98:	f888 3006 	strb.w	r3, [r8, #6]
 800ad9c:	8823      	ldrh	r3, [r4, #0]
 800ad9e:	eb03 0383 	add.w	r3, r3, r3, lsl #2
 800ada2:	440b      	add	r3, r1
 800ada4:	f8d3 352f 	ldr.w	r3, [r3, #1327]	; 0x52f
 800ada8:	f8cd 3026 	str.w	r3, [sp, #38]	; 0x26
 800adac:	4b47      	ldr	r3, [pc, #284]	; (800aecc <ShowPopWindow+0x314>)
 800adae:	789a      	ldrb	r2, [r3, #2]
 800adb0:	4b4c      	ldr	r3, [pc, #304]	; (800aee4 <ShowPopWindow+0x32c>)
 800adb2:	4413      	add	r3, r2
 800adb4:	440a      	add	r2, r1
 800adb6:	f201 71a3 	addw	r1, r1, #1955	; 0x7a3
 800adba:	791b      	ldrb	r3, [r3, #4]
 800adbc:	f892 279c 	ldrb.w	r2, [r2, #1948]	; 0x79c
 800adc0:	e9cd 0602 	strd	r0, r6, [sp, #8]
 800adc4:	9100      	str	r1, [sp, #0]
 800adc6:	4638      	mov	r0, r7
 800adc8:	4649      	mov	r1, r9
 800adca:	f8cd 8004 	str.w	r8, [sp, #4]
 800adce:	f7fe fab3 	bl	8009338 <ShowPopStr>
 800add2:	2301      	movs	r3, #1
 800add4:	4a46      	ldr	r2, [pc, #280]	; (800aef0 <ShowPopWindow+0x338>)
 800add6:	8824      	ldrh	r4, [r4, #0]
 800add8:	e9cd 3201 	strd	r3, r2, [sp, #4]
 800addc:	2320      	movs	r3, #32
 800adde:	f107 0068 	add.w	r0, r7, #104	; 0x68
 800ade2:	f105 010e 	add.w	r1, r5, #14
 800ade6:	9300      	str	r3, [sp, #0]
 800ade8:	b280      	uxth	r0, r0
 800adea:	b289      	uxth	r1, r1
 800adec:	f643 13e7 	movw	r3, #14823	; 0x39e7
 800adf0:	b934      	cbnz	r4, 800ae00 <ShowPopWindow+0x248>
 800adf2:	f647 32ef 	movw	r2, #31727	; 0x7bef
 800adf6:	f000 ffc7 	bl	800bd88 <Disp_Str6x8>
 800adfa:	f7fe fcc0 	bl	800977e <ShowLeftTitle>
 800adfe:	e2ef      	b.n	800b3e0 <ShowPopWindow+0x828>
 800ae00:	f240 72ff 	movw	r2, #2047	; 0x7ff
 800ae04:	e7f7      	b.n	800adf6 <ShowPopWindow+0x23e>
 800ae06:	f1ba 0f02 	cmp.w	sl, #2
 800ae0a:	d173      	bne.n	800aef4 <ShowPopWindow+0x33c>
 800ae0c:	f44f 729a 	mov.w	r2, #308	; 0x134
 800ae10:	f505 71a6 	add.w	r1, r5, #332	; 0x14c
 800ae14:	f205 602a 	addw	r0, r5, #1578	; 0x62a
 800ae18:	f007 fe84 	bl	8012b24 <memcpy>
 800ae1c:	f8b5 3760 	ldrh.w	r3, [r5, #1888]	; 0x760
 800ae20:	8b32      	ldrh	r2, [r6, #24]
 800ae22:	f103 0028 	add.w	r0, r3, #40	; 0x28
 800ae26:	429a      	cmp	r2, r3
 800ae28:	b280      	uxth	r0, r0
 800ae2a:	d094      	beq.n	800ad56 <ShowPopWindow+0x19e>
 800ae2c:	f04f 0a01 	mov.w	sl, #1
 800ae30:	f04f 0b00 	mov.w	fp, #0
 800ae34:	f205 632a 	addw	r3, r5, #1578	; 0x62a
 800ae38:	229a      	movs	r2, #154	; 0x9a
 800ae3a:	2142      	movs	r1, #66	; 0x42
 800ae3c:	f8cd a000 	str.w	sl, [sp]
 800ae40:	f001 f8f8 	bl	800c034 <RW_Row_Color>
 800ae44:	8b30      	ldrh	r0, [r6, #24]
 800ae46:	f205 632a 	addw	r3, r5, #1578	; 0x62a
 800ae4a:	3028      	adds	r0, #40	; 0x28
 800ae4c:	229a      	movs	r2, #154	; 0x9a
 800ae4e:	2142      	movs	r1, #66	; 0x42
 800ae50:	b280      	uxth	r0, r0
 800ae52:	f8cd b000 	str.w	fp, [sp]
 800ae56:	f001 f8ed 	bl	800c034 <RW_Row_Color>
 800ae5a:	f205 612a 	addw	r1, r5, #1578	; 0x62a
 800ae5e:	f44f 729a 	mov.w	r2, #308	; 0x134
 800ae62:	f505 70a6 	add.w	r0, r5, #332	; 0x14c
 800ae66:	f007 fe5d 	bl	8012b24 <memcpy>
 800ae6a:	9b04      	ldr	r3, [sp, #16]
 800ae6c:	789b      	ldrb	r3, [r3, #2]
 800ae6e:	442b      	add	r3, r5
 800ae70:	7918      	ldrb	r0, [r3, #4]
 800ae72:	f7ff fb4b 	bl	800a50c <BackupPreCursorPosition>
 800ae76:	f8b5 0760 	ldrh.w	r0, [r5, #1888]	; 0x760
 800ae7a:	f64f 75ff 	movw	r5, #65535	; 0xffff
 800ae7e:	3028      	adds	r0, #40	; 0x28
 800ae80:	465a      	mov	r2, fp
 800ae82:	2142      	movs	r1, #66	; 0x42
 800ae84:	b280      	uxth	r0, r0
 800ae86:	f7fe fbc3 	bl	8009610 <ClrCursor>
 800ae8a:	8af0      	ldrh	r0, [r6, #22]
 800ae8c:	239a      	movs	r3, #154	; 0x9a
 800ae8e:	3028      	adds	r0, #40	; 0x28
 800ae90:	4652      	mov	r2, sl
 800ae92:	2142      	movs	r1, #66	; 0x42
 800ae94:	9500      	str	r5, [sp, #0]
 800ae96:	b280      	uxth	r0, r0
 800ae98:	f7fe fb50 	bl	800953c <DrawDottedLine>
 800ae9c:	f44f 63fc 	mov.w	r3, #2016	; 0x7e0
 800aea0:	8bb0      	ldrh	r0, [r6, #28]
 800aea2:	4652      	mov	r2, sl
 800aea4:	3028      	adds	r0, #40	; 0x28
 800aea6:	9300      	str	r3, [sp, #0]
 800aea8:	2142      	movs	r1, #66	; 0x42
 800aeaa:	239a      	movs	r3, #154	; 0x9a
 800aeac:	b280      	uxth	r0, r0
 800aeae:	f7fe fb45 	bl	800953c <DrawDottedLine>
 800aeb2:	f240 531f 	movw	r3, #1311	; 0x51f
 800aeb6:	8bf0      	ldrh	r0, [r6, #30]
 800aeb8:	4652      	mov	r2, sl
 800aeba:	3028      	adds	r0, #40	; 0x28
 800aebc:	9300      	str	r3, [sp, #0]
 800aebe:	2142      	movs	r1, #66	; 0x42
 800aec0:	239a      	movs	r3, #154	; 0x9a
 800aec2:	b280      	uxth	r0, r0
 800aec4:	f7fe fb3a 	bl	800953c <DrawDottedLine>
 800aec8:	8b30      	ldrh	r0, [r6, #24]
 800aeca:	e13f      	b.n	800b14c <ShowPopWindow+0x594>
 800aecc:	20004c12 	.word	0x20004c12
 800aed0:	2000000c 	.word	0x2000000c
 800aed4:	200004c0 	.word	0x200004c0
 800aed8:	20000258 	.word	0x20000258
 800aedc:	2000038c 	.word	0x2000038c
 800aee0:	200005f4 	.word	0x200005f4
 800aee4:	20000240 	.word	0x20000240
 800aee8:	08012bc1 	.word	0x08012bc1
 800aeec:	08012c0c 	.word	0x08012c0c
 800aef0:	080138da 	.word	0x080138da
 800aef4:	f1ba 0f04 	cmp.w	sl, #4
 800aef8:	d07a      	beq.n	800aff0 <ShowPopWindow+0x438>
 800aefa:	f1ba 0f05 	cmp.w	sl, #5
 800aefe:	f000 812e 	beq.w	800b15e <ShowPopWindow+0x5a6>
 800af02:	f1ba 0f00 	cmp.w	sl, #0
 800af06:	d106      	bne.n	800af16 <ShowPopWindow+0x35e>
 800af08:	7d33      	ldrb	r3, [r6, #20]
 800af0a:	f44f 728c 	mov.w	r2, #280	; 0x118
 800af0e:	2137      	movs	r1, #55	; 0x37
 800af10:	2029      	movs	r0, #41	; 0x29
 800af12:	f7ff fa4f 	bl	800a3b4 <ShowScaleRuleTime>
 800af16:	f7fe fbab 	bl	8009670 <Draw_ScaleRule>
 800af1a:	4dbf      	ldr	r5, [pc, #764]	; (800b218 <ShowPopWindow+0x660>)
 800af1c:	8bb3      	ldrh	r3, [r6, #28]
 800af1e:	f8df a308 	ldr.w	sl, [pc, #776]	; 800b228 <ShowPopWindow+0x670>
 800af22:	f8a5 3762 	strh.w	r3, [r5, #1890]	; 0x762
 800af26:	8b33      	ldrh	r3, [r6, #24]
 800af28:	8ab1      	ldrh	r1, [r6, #20]
 800af2a:	f8a5 3760 	strh.w	r3, [r5, #1888]	; 0x760
 800af2e:	8bf3      	ldrh	r3, [r6, #30]
 800af30:	8af2      	ldrh	r2, [r6, #22]
 800af32:	f8a5 3764 	strh.w	r3, [r5, #1892]	; 0x764
 800af36:	f50a 63f6 	add.w	r3, sl, #1968	; 0x7b0
 800af3a:	eb03 03c1 	add.w	r3, r3, r1, lsl #3
 800af3e:	6818      	ldr	r0, [r3, #0]
 800af40:	8899      	ldrh	r1, [r3, #4]
 800af42:	799b      	ldrb	r3, [r3, #6]
 800af44:	9009      	str	r0, [sp, #36]	; 0x24
 800af46:	f888 3006 	strb.w	r3, [r8, #6]
 800af4a:	f8a8 1004 	strh.w	r1, [r8, #4]
 800af4e:	4620      	mov	r0, r4
 800af50:	49b2      	ldr	r1, [pc, #712]	; (800b21c <ShowPopWindow+0x664>)
 800af52:	f8a5 275e 	strh.w	r2, [r5, #1886]	; 0x75e
 800af56:	f004 fcb1 	bl	800f8bc <sprintf>
 800af5a:	49b1      	ldr	r1, [pc, #708]	; (800b220 <ShowPopWindow+0x668>)
 800af5c:	4620      	mov	r0, r4
 800af5e:	f007 fdf4 	bl	8012b4a <strcat>
 800af62:	9806      	ldr	r0, [sp, #24]
 800af64:	88a2      	ldrh	r2, [r4, #4]
 800af66:	79a3      	ldrb	r3, [r4, #6]
 800af68:	f8cd 002d 	str.w	r0, [sp, #45]	; 0x2d
 800af6c:	f8ad 2031 	strh.w	r2, [sp, #49]	; 0x31
 800af70:	49aa      	ldr	r1, [pc, #680]	; (800b21c <ShowPopWindow+0x664>)
 800af72:	8b32      	ldrh	r2, [r6, #24]
 800af74:	4620      	mov	r0, r4
 800af76:	f88d 3033 	strb.w	r3, [sp, #51]	; 0x33
 800af7a:	f004 fc9f 	bl	800f8bc <sprintf>
 800af7e:	49a8      	ldr	r1, [pc, #672]	; (800b220 <ShowPopWindow+0x668>)
 800af80:	4620      	mov	r0, r4
 800af82:	f007 fde2 	bl	8012b4a <strcat>
 800af86:	9806      	ldr	r0, [sp, #24]
 800af88:	79a3      	ldrb	r3, [r4, #6]
 800af8a:	f8cd 0036 	str.w	r0, [sp, #54]	; 0x36
 800af8e:	200a      	movs	r0, #10
 800af90:	f88d 303c 	strb.w	r3, [sp, #60]	; 0x3c
 800af94:	4ba3      	ldr	r3, [pc, #652]	; (800b224 <ShowPopWindow+0x66c>)
 800af96:	88a2      	ldrh	r2, [r4, #4]
 800af98:	6819      	ldr	r1, [r3, #0]
 800af9a:	f8ad 203a 	strh.w	r2, [sp, #58]	; 0x3a
 800af9e:	2303      	movs	r3, #3
 800afa0:	f20a 529d 	addw	r2, sl, #1437	; 0x59d
 800afa4:	4341      	muls	r1, r0
 800afa6:	4620      	mov	r0, r4
 800afa8:	f002 ff24 	bl	800ddf4 <u32ToStr_Unit>
 800afac:	499c      	ldr	r1, [pc, #624]	; (800b220 <ShowPopWindow+0x668>)
 800afae:	4620      	mov	r0, r4
 800afb0:	f007 fdcb 	bl	8012b4a <strcat>
 800afb4:	9806      	ldr	r0, [sp, #24]
 800afb6:	210b      	movs	r1, #11
 800afb8:	f8cd 003f 	str.w	r0, [sp, #63]	; 0x3f
 800afbc:	2007      	movs	r0, #7
 800afbe:	79a3      	ldrb	r3, [r4, #6]
 800afc0:	88a2      	ldrh	r2, [r4, #4]
 800afc2:	f88d 3045 	strb.w	r3, [sp, #69]	; 0x45
 800afc6:	9b04      	ldr	r3, [sp, #16]
 800afc8:	f8ad 2043 	strh.w	r2, [sp, #67]	; 0x43
 800afcc:	789a      	ldrb	r2, [r3, #2]
 800afce:	4415      	add	r5, r2
 800afd0:	4452      	add	r2, sl
 800afd2:	f892 279c 	ldrb.w	r2, [r2, #1948]	; 0x79c
 800afd6:	792b      	ldrb	r3, [r5, #4]
 800afd8:	e9cd 1002 	strd	r1, r0, [sp, #8]
 800afdc:	f8cd 8004 	str.w	r8, [sp, #4]
 800afe0:	f50a 6105 	add.w	r1, sl, #2128	; 0x850
 800afe4:	9100      	str	r1, [sp, #0]
 800afe6:	4638      	mov	r0, r7
 800afe8:	4649      	mov	r1, r9
 800afea:	f7fe f9a5 	bl	8009338 <ShowPopStr>
 800afee:	e1f7      	b.n	800b3e0 <ShowPopWindow+0x828>
 800aff0:	f8b5 3762 	ldrh.w	r3, [r5, #1890]	; 0x762
 800aff4:	8bb2      	ldrh	r2, [r6, #28]
 800aff6:	f103 0028 	add.w	r0, r3, #40	; 0x28
 800affa:	429a      	cmp	r2, r3
 800affc:	b280      	uxth	r0, r0
 800affe:	d051      	beq.n	800b0a4 <ShowPopWindow+0x4ec>
 800b000:	f04f 0a01 	mov.w	sl, #1
 800b004:	f04f 0b00 	mov.w	fp, #0
 800b008:	f205 632a 	addw	r3, r5, #1578	; 0x62a
 800b00c:	229a      	movs	r2, #154	; 0x9a
 800b00e:	2142      	movs	r1, #66	; 0x42
 800b010:	f8cd a000 	str.w	sl, [sp]
 800b014:	f001 f80e 	bl	800c034 <RW_Row_Color>
 800b018:	8bb0      	ldrh	r0, [r6, #28]
 800b01a:	f205 632a 	addw	r3, r5, #1578	; 0x62a
 800b01e:	3028      	adds	r0, #40	; 0x28
 800b020:	229a      	movs	r2, #154	; 0x9a
 800b022:	2142      	movs	r1, #66	; 0x42
 800b024:	b280      	uxth	r0, r0
 800b026:	f8cd b000 	str.w	fp, [sp]
 800b02a:	f001 f803 	bl	800c034 <RW_Row_Color>
 800b02e:	f205 612a 	addw	r1, r5, #1578	; 0x62a
 800b032:	f44f 729a 	mov.w	r2, #308	; 0x134
 800b036:	f505 7020 	add.w	r0, r5, #640	; 0x280
 800b03a:	f007 fd73 	bl	8012b24 <memcpy>
 800b03e:	9b04      	ldr	r3, [sp, #16]
 800b040:	789b      	ldrb	r3, [r3, #2]
 800b042:	442b      	add	r3, r5
 800b044:	7918      	ldrb	r0, [r3, #4]
 800b046:	f7ff fa61 	bl	800a50c <BackupPreCursorPosition>
 800b04a:	f8b5 0762 	ldrh.w	r0, [r5, #1890]	; 0x762
 800b04e:	f64f 75ff 	movw	r5, #65535	; 0xffff
 800b052:	3028      	adds	r0, #40	; 0x28
 800b054:	465a      	mov	r2, fp
 800b056:	2142      	movs	r1, #66	; 0x42
 800b058:	b280      	uxth	r0, r0
 800b05a:	f7fe fad9 	bl	8009610 <ClrCursor>
 800b05e:	8af0      	ldrh	r0, [r6, #22]
 800b060:	239a      	movs	r3, #154	; 0x9a
 800b062:	3028      	adds	r0, #40	; 0x28
 800b064:	4652      	mov	r2, sl
 800b066:	2142      	movs	r1, #66	; 0x42
 800b068:	9500      	str	r5, [sp, #0]
 800b06a:	b280      	uxth	r0, r0
 800b06c:	f7fe fa66 	bl	800953c <DrawDottedLine>
 800b070:	8b30      	ldrh	r0, [r6, #24]
 800b072:	239a      	movs	r3, #154	; 0x9a
 800b074:	3028      	adds	r0, #40	; 0x28
 800b076:	4652      	mov	r2, sl
 800b078:	2142      	movs	r1, #66	; 0x42
 800b07a:	9500      	str	r5, [sp, #0]
 800b07c:	b280      	uxth	r0, r0
 800b07e:	f7fe fa5d 	bl	800953c <DrawDottedLine>
 800b082:	f240 531f 	movw	r3, #1311	; 0x51f
 800b086:	8bf0      	ldrh	r0, [r6, #30]
 800b088:	4652      	mov	r2, sl
 800b08a:	3028      	adds	r0, #40	; 0x28
 800b08c:	9300      	str	r3, [sp, #0]
 800b08e:	2142      	movs	r1, #66	; 0x42
 800b090:	239a      	movs	r3, #154	; 0x9a
 800b092:	b280      	uxth	r0, r0
 800b094:	f7fe fa52 	bl	800953c <DrawDottedLine>
 800b098:	f44f 63fc 	mov.w	r3, #2016	; 0x7e0
 800b09c:	8bb0      	ldrh	r0, [r6, #28]
 800b09e:	3028      	adds	r0, #40	; 0x28
 800b0a0:	9300      	str	r3, [sp, #0]
 800b0a2:	e055      	b.n	800b150 <ShowPopWindow+0x598>
 800b0a4:	f44f 63fc 	mov.w	r3, #2016	; 0x7e0
 800b0a8:	9300      	str	r3, [sp, #0]
 800b0aa:	2201      	movs	r2, #1
 800b0ac:	239a      	movs	r3, #154	; 0x9a
 800b0ae:	2142      	movs	r1, #66	; 0x42
 800b0b0:	e052      	b.n	800b158 <ShowPopWindow+0x5a0>
 800b0b2:	f04f 0b00 	mov.w	fp, #0
 800b0b6:	f205 632a 	addw	r3, r5, #1578	; 0x62a
 800b0ba:	229a      	movs	r2, #154	; 0x9a
 800b0bc:	2142      	movs	r1, #66	; 0x42
 800b0be:	f8cd a000 	str.w	sl, [sp]
 800b0c2:	f000 ffb7 	bl	800c034 <RW_Row_Color>
 800b0c6:	8af0      	ldrh	r0, [r6, #22]
 800b0c8:	f205 632a 	addw	r3, r5, #1578	; 0x62a
 800b0cc:	3028      	adds	r0, #40	; 0x28
 800b0ce:	229a      	movs	r2, #154	; 0x9a
 800b0d0:	2142      	movs	r1, #66	; 0x42
 800b0d2:	b280      	uxth	r0, r0
 800b0d4:	f8cd b000 	str.w	fp, [sp]
 800b0d8:	f000 ffac 	bl	800c034 <RW_Row_Color>
 800b0dc:	f205 612a 	addw	r1, r5, #1578	; 0x62a
 800b0e0:	f44f 729a 	mov.w	r2, #308	; 0x134
 800b0e4:	f105 0018 	add.w	r0, r5, #24
 800b0e8:	f007 fd1c 	bl	8012b24 <memcpy>
 800b0ec:	9b04      	ldr	r3, [sp, #16]
 800b0ee:	789b      	ldrb	r3, [r3, #2]
 800b0f0:	442b      	add	r3, r5
 800b0f2:	7918      	ldrb	r0, [r3, #4]
 800b0f4:	f7ff fa0a 	bl	800a50c <BackupPreCursorPosition>
 800b0f8:	f8b5 075e 	ldrh.w	r0, [r5, #1886]	; 0x75e
 800b0fc:	465a      	mov	r2, fp
 800b0fe:	3028      	adds	r0, #40	; 0x28
 800b100:	2142      	movs	r1, #66	; 0x42
 800b102:	b280      	uxth	r0, r0
 800b104:	f7fe fa84 	bl	8009610 <ClrCursor>
 800b108:	f44f 63fc 	mov.w	r3, #2016	; 0x7e0
 800b10c:	f64f 75ff 	movw	r5, #65535	; 0xffff
 800b110:	8bb0      	ldrh	r0, [r6, #28]
 800b112:	4652      	mov	r2, sl
 800b114:	3028      	adds	r0, #40	; 0x28
 800b116:	9300      	str	r3, [sp, #0]
 800b118:	2142      	movs	r1, #66	; 0x42
 800b11a:	239a      	movs	r3, #154	; 0x9a
 800b11c:	b280      	uxth	r0, r0
 800b11e:	f7fe fa0d 	bl	800953c <DrawDottedLine>
 800b122:	8b30      	ldrh	r0, [r6, #24]
 800b124:	239a      	movs	r3, #154	; 0x9a
 800b126:	3028      	adds	r0, #40	; 0x28
 800b128:	4652      	mov	r2, sl
 800b12a:	2142      	movs	r1, #66	; 0x42
 800b12c:	9500      	str	r5, [sp, #0]
 800b12e:	b280      	uxth	r0, r0
 800b130:	f7fe fa04 	bl	800953c <DrawDottedLine>
 800b134:	f240 531f 	movw	r3, #1311	; 0x51f
 800b138:	8bf0      	ldrh	r0, [r6, #30]
 800b13a:	4652      	mov	r2, sl
 800b13c:	3028      	adds	r0, #40	; 0x28
 800b13e:	9300      	str	r3, [sp, #0]
 800b140:	2142      	movs	r1, #66	; 0x42
 800b142:	239a      	movs	r3, #154	; 0x9a
 800b144:	b280      	uxth	r0, r0
 800b146:	f7fe f9f9 	bl	800953c <DrawDottedLine>
 800b14a:	8af0      	ldrh	r0, [r6, #22]
 800b14c:	3028      	adds	r0, #40	; 0x28
 800b14e:	9500      	str	r5, [sp, #0]
 800b150:	239a      	movs	r3, #154	; 0x9a
 800b152:	4652      	mov	r2, sl
 800b154:	2142      	movs	r1, #66	; 0x42
 800b156:	b280      	uxth	r0, r0
 800b158:	f7fe f9f0 	bl	800953c <DrawDottedLine>
 800b15c:	e6db      	b.n	800af16 <ShowPopWindow+0x35e>
 800b15e:	f8b5 3764 	ldrh.w	r3, [r5, #1892]	; 0x764
 800b162:	8bf2      	ldrh	r2, [r6, #30]
 800b164:	f103 0028 	add.w	r0, r3, #40	; 0x28
 800b168:	429a      	cmp	r2, r3
 800b16a:	b280      	uxth	r0, r0
 800b16c:	d050      	beq.n	800b210 <ShowPopWindow+0x658>
 800b16e:	f04f 0a01 	mov.w	sl, #1
 800b172:	f04f 0b00 	mov.w	fp, #0
 800b176:	f205 632a 	addw	r3, r5, #1578	; 0x62a
 800b17a:	229a      	movs	r2, #154	; 0x9a
 800b17c:	2142      	movs	r1, #66	; 0x42
 800b17e:	f8cd a000 	str.w	sl, [sp]
 800b182:	f000 ff57 	bl	800c034 <RW_Row_Color>
 800b186:	8bf0      	ldrh	r0, [r6, #30]
 800b188:	f205 632a 	addw	r3, r5, #1578	; 0x62a
 800b18c:	3028      	adds	r0, #40	; 0x28
 800b18e:	229a      	movs	r2, #154	; 0x9a
 800b190:	2142      	movs	r1, #66	; 0x42
 800b192:	b280      	uxth	r0, r0
 800b194:	f8cd b000 	str.w	fp, [sp]
 800b198:	f000 ff4c 	bl	800c034 <RW_Row_Color>
 800b19c:	f205 612a 	addw	r1, r5, #1578	; 0x62a
 800b1a0:	f44f 729a 	mov.w	r2, #308	; 0x134
 800b1a4:	f505 706d 	add.w	r0, r5, #948	; 0x3b4
 800b1a8:	f007 fcbc 	bl	8012b24 <memcpy>
 800b1ac:	9b04      	ldr	r3, [sp, #16]
 800b1ae:	789b      	ldrb	r3, [r3, #2]
 800b1b0:	442b      	add	r3, r5
 800b1b2:	7918      	ldrb	r0, [r3, #4]
 800b1b4:	f7ff f9aa 	bl	800a50c <BackupPreCursorPosition>
 800b1b8:	f8b5 0764 	ldrh.w	r0, [r5, #1892]	; 0x764
 800b1bc:	465a      	mov	r2, fp
 800b1be:	3028      	adds	r0, #40	; 0x28
 800b1c0:	2142      	movs	r1, #66	; 0x42
 800b1c2:	b280      	uxth	r0, r0
 800b1c4:	f7fe fa24 	bl	8009610 <ClrCursor>
 800b1c8:	f44f 63fc 	mov.w	r3, #2016	; 0x7e0
 800b1cc:	f64f 75ff 	movw	r5, #65535	; 0xffff
 800b1d0:	8bb0      	ldrh	r0, [r6, #28]
 800b1d2:	4652      	mov	r2, sl
 800b1d4:	3028      	adds	r0, #40	; 0x28
 800b1d6:	9300      	str	r3, [sp, #0]
 800b1d8:	2142      	movs	r1, #66	; 0x42
 800b1da:	239a      	movs	r3, #154	; 0x9a
 800b1dc:	b280      	uxth	r0, r0
 800b1de:	f7fe f9ad 	bl	800953c <DrawDottedLine>
 800b1e2:	8af0      	ldrh	r0, [r6, #22]
 800b1e4:	239a      	movs	r3, #154	; 0x9a
 800b1e6:	3028      	adds	r0, #40	; 0x28
 800b1e8:	4652      	mov	r2, sl
 800b1ea:	2142      	movs	r1, #66	; 0x42
 800b1ec:	9500      	str	r5, [sp, #0]
 800b1ee:	b280      	uxth	r0, r0
 800b1f0:	f7fe f9a4 	bl	800953c <DrawDottedLine>
 800b1f4:	8b30      	ldrh	r0, [r6, #24]
 800b1f6:	239a      	movs	r3, #154	; 0x9a
 800b1f8:	3028      	adds	r0, #40	; 0x28
 800b1fa:	9500      	str	r5, [sp, #0]
 800b1fc:	4652      	mov	r2, sl
 800b1fe:	2142      	movs	r1, #66	; 0x42
 800b200:	b280      	uxth	r0, r0
 800b202:	f7fe f99b 	bl	800953c <DrawDottedLine>
 800b206:	8bf0      	ldrh	r0, [r6, #30]
 800b208:	f240 531f 	movw	r3, #1311	; 0x51f
 800b20c:	3028      	adds	r0, #40	; 0x28
 800b20e:	e747      	b.n	800b0a0 <ShowPopWindow+0x4e8>
 800b210:	f240 531f 	movw	r3, #1311	; 0x51f
 800b214:	e748      	b.n	800b0a8 <ShowPopWindow+0x4f0>
 800b216:	bf00      	nop
 800b218:	20000240 	.word	0x20000240
 800b21c:	080138fb 	.word	0x080138fb
 800b220:	08012bc6 	.word	0x08012bc6
 800b224:	20004c18 	.word	0x20004c18
 800b228:	08012c0c 	.word	0x08012c0c
 800b22c:	4ac4      	ldr	r2, [pc, #784]	; (800b540 <ShowPopWindow+0x988>)
 800b22e:	4bc5      	ldr	r3, [pc, #788]	; (800b544 <ShowPopWindow+0x98c>)
 800b230:	8d11      	ldrh	r1, [r2, #40]	; 0x28
 800b232:	4692      	mov	sl, r2
 800b234:	eb03 03c1 	add.w	r3, r3, r1, lsl #3
 800b238:	6818      	ldr	r0, [r3, #0]
 800b23a:	8899      	ldrh	r1, [r3, #4]
 800b23c:	799b      	ldrb	r3, [r3, #6]
 800b23e:	9009      	str	r0, [sp, #36]	; 0x24
 800b240:	f888 3006 	strb.w	r3, [r8, #6]
 800b244:	4bc0      	ldr	r3, [pc, #768]	; (800b548 <ShowPopWindow+0x990>)
 800b246:	f8a8 1004 	strh.w	r1, [r8, #4]
 800b24a:	881b      	ldrh	r3, [r3, #0]
 800b24c:	207d      	movs	r0, #125	; 0x7d
 800b24e:	f8ad 302d 	strh.w	r3, [sp, #45]	; 0x2d
 800b252:	267b      	movs	r6, #123	; 0x7b
 800b254:	2308      	movs	r3, #8
 800b256:	f10d 0127 	add.w	r1, sp, #39	; 0x27
 800b25a:	f8ba 202a 	ldrh.w	r2, [sl, #42]	; 0x2a
 800b25e:	411a      	asrs	r2, r3
 800b260:	07d2      	lsls	r2, r2, #31
 800b262:	bf4c      	ite	mi
 800b264:	54ce      	strbmi	r6, [r1, r3]
 800b266:	54c8      	strbpl	r0, [r1, r3]
 800b268:	3301      	adds	r3, #1
 800b26a:	2b0c      	cmp	r3, #12
 800b26c:	d1f5      	bne.n	800b25a <ShowPopWindow+0x6a2>
 800b26e:	2320      	movs	r3, #32
 800b270:	f88d 3033 	strb.w	r3, [sp, #51]	; 0x33
 800b274:	f242 0320 	movw	r3, #8224	; 0x2020
 800b278:	2024      	movs	r0, #36	; 0x24
 800b27a:	f8ad 3036 	strh.w	r3, [sp, #54]	; 0x36
 800b27e:	2678      	movs	r6, #120	; 0x78
 800b280:	2308      	movs	r3, #8
 800b282:	f108 010c 	add.w	r1, r8, #12
 800b286:	f8ba 202c 	ldrh.w	r2, [sl, #44]	; 0x2c
 800b28a:	411a      	asrs	r2, r3
 800b28c:	07d2      	lsls	r2, r2, #31
 800b28e:	bf4c      	ite	mi
 800b290:	54ce      	strbmi	r6, [r1, r3]
 800b292:	54c8      	strbpl	r0, [r1, r3]
 800b294:	3301      	adds	r3, #1
 800b296:	2b0c      	cmp	r3, #12
 800b298:	d1f5      	bne.n	800b286 <ShowPopWindow+0x6ce>
 800b29a:	2320      	movs	r3, #32
 800b29c:	210a      	movs	r1, #10
 800b29e:	f04f 0b00 	mov.w	fp, #0
 800b2a2:	f8ba 202e 	ldrh.w	r2, [sl, #46]	; 0x2e
 800b2a6:	4ea9      	ldr	r6, [pc, #676]	; (800b54c <ShowPopWindow+0x994>)
 800b2a8:	f88d 303c 	strb.w	r3, [sp, #60]	; 0x3c
 800b2ac:	f8ba 3014 	ldrh.w	r3, [sl, #20]
 800b2b0:	4351      	muls	r1, r2
 800b2b2:	eb06 0383 	add.w	r3, r6, r3, lsl #2
 800b2b6:	f8d3 065c 	ldr.w	r0, [r3, #1628]	; 0x65c
 800b2ba:	f8cd b018 	str.w	fp, [sp, #24]
 800b2be:	2303      	movs	r3, #3
 800b2c0:	f8c4 b004 	str.w	fp, [r4, #4]
 800b2c4:	f8a4 b008 	strh.w	fp, [r4, #8]
 800b2c8:	f206 529d 	addw	r2, r6, #1437	; 0x59d
 800b2cc:	4341      	muls	r1, r0
 800b2ce:	4620      	mov	r0, r4
 800b2d0:	f002 fd90 	bl	800ddf4 <u32ToStr_Unit>
 800b2d4:	499c      	ldr	r1, [pc, #624]	; (800b548 <ShowPopWindow+0x990>)
 800b2d6:	4620      	mov	r0, r4
 800b2d8:	f007 fc37 	bl	8012b4a <strcat>
 800b2dc:	9806      	ldr	r0, [sp, #24]
 800b2de:	88a2      	ldrh	r2, [r4, #4]
 800b2e0:	79a3      	ldrb	r3, [r4, #6]
 800b2e2:	f8cd 003f 	str.w	r0, [sp, #63]	; 0x3f
 800b2e6:	f8cd b018 	str.w	fp, [sp, #24]
 800b2ea:	4620      	mov	r0, r4
 800b2ec:	f8c4 b004 	str.w	fp, [r4, #4]
 800b2f0:	f8a4 b008 	strh.w	fp, [r4, #8]
 800b2f4:	f8ba 1030 	ldrh.w	r1, [sl, #48]	; 0x30
 800b2f8:	f8ad 2043 	strh.w	r2, [sp, #67]	; 0x43
 800b2fc:	f88d 3045 	strb.w	r3, [sp, #69]	; 0x45
 800b300:	f002 fe6f 	bl	800dfe2 <ValuedivTen2Str>
 800b304:	f242 0320 	movw	r3, #8224	; 0x2020
 800b308:	210b      	movs	r1, #11
 800b30a:	f04f 0b07 	mov.w	fp, #7
 800b30e:	f8ad 3048 	strh.w	r3, [sp, #72]	; 0x48
 800b312:	78a3      	ldrb	r3, [r4, #2]
 800b314:	8822      	ldrh	r2, [r4, #0]
 800b316:	f88d 304c 	strb.w	r3, [sp, #76]	; 0x4c
 800b31a:	4b8d      	ldr	r3, [pc, #564]	; (800b550 <ShowPopWindow+0x998>)
 800b31c:	f8ad 204a 	strh.w	r2, [sp, #74]	; 0x4a
 800b320:	881b      	ldrh	r3, [r3, #0]
 800b322:	4c8c      	ldr	r4, [pc, #560]	; (800b554 <ShowPopWindow+0x99c>)
 800b324:	f8ad 304d 	strh.w	r3, [sp, #77]	; 0x4d
 800b328:	4b8b      	ldr	r3, [pc, #556]	; (800b558 <ShowPopWindow+0x9a0>)
 800b32a:	4638      	mov	r0, r7
 800b32c:	789a      	ldrb	r2, [r3, #2]
 800b32e:	18a3      	adds	r3, r4, r2
 800b330:	791b      	ldrb	r3, [r3, #4]
 800b332:	4432      	add	r2, r6
 800b334:	e9cd 1b02 	strd	r1, fp, [sp, #8]
 800b338:	f606 01de 	addw	r1, r6, #2270	; 0x8de
 800b33c:	9100      	str	r1, [sp, #0]
 800b33e:	f892 279c 	ldrb.w	r2, [r2, #1948]	; 0x79c
 800b342:	f8cd 8004 	str.w	r8, [sp, #4]
 800b346:	4649      	mov	r1, r9
 800b348:	f7fd fff6 	bl	8009338 <ShowPopStr>
 800b34c:	79a3      	ldrb	r3, [r4, #6]
 800b34e:	2b01      	cmp	r3, #1
 800b350:	d149      	bne.n	800b3e6 <ShowPopWindow+0x82e>
 800b352:	f894 0766 	ldrb.w	r0, [r4, #1894]	; 0x766
 800b356:	f643 12e7 	movw	r2, #14823	; 0x39e7
 800b35a:	eb00 0040 	add.w	r0, r0, r0, lsl #1
 800b35e:	0040      	lsls	r0, r0, #1
 800b360:	21b4      	movs	r1, #180	; 0xb4
 800b362:	30ab      	adds	r0, #171	; 0xab
 800b364:	f7fe f9c8 	bl	80096f8 <DrawCursor>
 800b368:	f894 0767 	ldrb.w	r0, [r4, #1895]	; 0x767
 800b36c:	f643 12e7 	movw	r2, #14823	; 0x39e7
 800b370:	eb00 0040 	add.w	r0, r0, r0, lsl #1
 800b374:	0040      	lsls	r0, r0, #1
 800b376:	21c2      	movs	r1, #194	; 0xc2
 800b378:	30ab      	adds	r0, #171	; 0xab
 800b37a:	f7fe f9bd 	bl	80096f8 <DrawCursor>
 800b37e:	21c2      	movs	r1, #194	; 0xc2
 800b380:	f89a 002a 	ldrb.w	r0, [sl, #42]	; 0x2a
 800b384:	0043      	lsls	r3, r0, #1
 800b386:	441e      	add	r6, r3
 800b388:	f884 0767 	strb.w	r0, [r4, #1895]	; 0x767
 800b38c:	f8b6 2920 	ldrh.w	r2, [r6, #2336]	; 0x920
 800b390:	4418      	add	r0, r3
 800b392:	0040      	lsls	r0, r0, #1
 800b394:	2420      	movs	r4, #32
 800b396:	2601      	movs	r6, #1
 800b398:	30ab      	adds	r0, #171	; 0xab
 800b39a:	f8df 81cc 	ldr.w	r8, [pc, #460]	; 800b568 <ShowPopWindow+0x9b0>
 800b39e:	377a      	adds	r7, #122	; 0x7a
 800b3a0:	f7fe f9aa 	bl	80096f8 <DrawCursor>
 800b3a4:	b2bf      	uxth	r7, r7
 800b3a6:	f7fd fd1e 	bl	8008de6 <DrawTriggerIco>
 800b3aa:	f105 011c 	add.w	r1, r5, #28
 800b3ae:	f643 13e7 	movw	r3, #14823	; 0x39e7
 800b3b2:	f64b 52e0 	movw	r2, #48608	; 0xbde0
 800b3b6:	b289      	uxth	r1, r1
 800b3b8:	4638      	mov	r0, r7
 800b3ba:	f8cd 8008 	str.w	r8, [sp, #8]
 800b3be:	e9cd 4600 	strd	r4, r6, [sp]
 800b3c2:	f000 fce1 	bl	800bd88 <Disp_Str6x8>
 800b3c6:	f105 012a 	add.w	r1, r5, #42	; 0x2a
 800b3ca:	e9cd 6801 	strd	r6, r8, [sp, #4]
 800b3ce:	9400      	str	r4, [sp, #0]
 800b3d0:	f643 13e7 	movw	r3, #14823	; 0x39e7
 800b3d4:	f64b 52e0 	movw	r2, #48608	; 0xbde0
 800b3d8:	b289      	uxth	r1, r1
 800b3da:	4638      	mov	r0, r7
 800b3dc:	f000 fcd4 	bl	800bd88 <Disp_Str6x8>
 800b3e0:	b021      	add	sp, #132	; 0x84
 800b3e2:	e8bd 8ff0 	ldmia.w	sp!, {r4, r5, r6, r7, r8, r9, sl, fp, pc}
 800b3e6:	f894 0767 	ldrb.w	r0, [r4, #1895]	; 0x767
 800b3ea:	2b02      	cmp	r3, #2
 800b3ec:	eb00 0040 	add.w	r0, r0, r0, lsl #1
 800b3f0:	ea4f 0040 	mov.w	r0, r0, lsl #1
 800b3f4:	f100 00ab 	add.w	r0, r0, #171	; 0xab
 800b3f8:	f643 12e7 	movw	r2, #14823	; 0x39e7
 800b3fc:	f04f 01c2 	mov.w	r1, #194	; 0xc2
 800b400:	d118      	bne.n	800b434 <ShowPopWindow+0x87c>
 800b402:	f7fe f979 	bl	80096f8 <DrawCursor>
 800b406:	f894 0766 	ldrb.w	r0, [r4, #1894]	; 0x766
 800b40a:	f643 12e7 	movw	r2, #14823	; 0x39e7
 800b40e:	eb00 0040 	add.w	r0, r0, r0, lsl #1
 800b412:	0040      	lsls	r0, r0, #1
 800b414:	30ab      	adds	r0, #171	; 0xab
 800b416:	21b4      	movs	r1, #180	; 0xb4
 800b418:	f7fe f96e 	bl	80096f8 <DrawCursor>
 800b41c:	f89a 002c 	ldrb.w	r0, [sl, #44]	; 0x2c
 800b420:	0043      	lsls	r3, r0, #1
 800b422:	441e      	add	r6, r3
 800b424:	f884 0766 	strb.w	r0, [r4, #1894]	; 0x766
 800b428:	f8b6 2920 	ldrh.w	r2, [r6, #2336]	; 0x920
 800b42c:	4418      	add	r0, r3
 800b42e:	0040      	lsls	r0, r0, #1
 800b430:	21b4      	movs	r1, #180	; 0xb4
 800b432:	e7af      	b.n	800b394 <ShowPopWindow+0x7dc>
 800b434:	f7fe f960 	bl	80096f8 <DrawCursor>
 800b438:	f894 0766 	ldrb.w	r0, [r4, #1894]	; 0x766
 800b43c:	f643 12e7 	movw	r2, #14823	; 0x39e7
 800b440:	eb00 0040 	add.w	r0, r0, r0, lsl #1
 800b444:	0040      	lsls	r0, r0, #1
 800b446:	e7f3      	b.n	800b430 <ShowPopWindow+0x878>
 800b448:	4c3d      	ldr	r4, [pc, #244]	; (800b540 <ShowPopWindow+0x988>)
 800b44a:	4940      	ldr	r1, [pc, #256]	; (800b54c <ShowPopWindow+0x994>)
 800b44c:	8fa3      	ldrh	r3, [r4, #60]	; 0x3c
 800b44e:	f601 122c 	addw	r2, r1, #2348	; 0x92c
 800b452:	ebc3 03c3 	rsb	r3, r3, r3, lsl #3
 800b456:	4413      	add	r3, r2
 800b458:	6818      	ldr	r0, [r3, #0]
 800b45a:	f04f 0e06 	mov.w	lr, #6
 800b45e:	9009      	str	r0, [sp, #36]	; 0x24
 800b460:	8898      	ldrh	r0, [r3, #4]
 800b462:	799b      	ldrb	r3, [r3, #6]
 800b464:	f8a8 0004 	strh.w	r0, [r8, #4]
 800b468:	200b      	movs	r0, #11
 800b46a:	f888 3006 	strb.w	r3, [r8, #6]
 800b46e:	8fe3      	ldrh	r3, [r4, #62]	; 0x3e
 800b470:	ebc3 03c3 	rsb	r3, r3, r3, lsl #3
 800b474:	4413      	add	r3, r2
 800b476:	681a      	ldr	r2, [r3, #0]
 800b478:	f8cd 202d 	str.w	r2, [sp, #45]	; 0x2d
 800b47c:	889a      	ldrh	r2, [r3, #4]
 800b47e:	799b      	ldrb	r3, [r3, #6]
 800b480:	f8ad 2031 	strh.w	r2, [sp, #49]	; 0x31
 800b484:	f88d 3033 	strb.w	r3, [sp, #51]	; 0x33
 800b488:	4b33      	ldr	r3, [pc, #204]	; (800b558 <ShowPopWindow+0x9a0>)
 800b48a:	789a      	ldrb	r2, [r3, #2]
 800b48c:	4b31      	ldr	r3, [pc, #196]	; (800b554 <ShowPopWindow+0x99c>)
 800b48e:	4413      	add	r3, r2
 800b490:	440a      	add	r2, r1
 800b492:	791b      	ldrb	r3, [r3, #4]
 800b494:	f892 279c 	ldrb.w	r2, [r2, #1948]	; 0x79c
 800b498:	e9cd 0e02 	strd	r0, lr, [sp, #8]
 800b49c:	f8cd 8004 	str.w	r8, [sp, #4]
 800b4a0:	f601 1148 	addw	r1, r1, #2376	; 0x948
 800b4a4:	e59e      	b.n	800afe4 <ShowPopWindow+0x42c>
 800b4a6:	4b2d      	ldr	r3, [pc, #180]	; (800b55c <ShowPopWindow+0x9a4>)
 800b4a8:	4e25      	ldr	r6, [pc, #148]	; (800b540 <ShowPopWindow+0x988>)
 800b4aa:	6818      	ldr	r0, [r3, #0]
 800b4ac:	889a      	ldrh	r2, [r3, #4]
 800b4ae:	799b      	ldrb	r3, [r3, #6]
 800b4b0:	9009      	str	r0, [sp, #36]	; 0x24
 800b4b2:	f888 3006 	strb.w	r3, [r8, #6]
 800b4b6:	f8b6 3050 	ldrh.w	r3, [r6, #80]	; 0x50
 800b4ba:	4c24      	ldr	r4, [pc, #144]	; (800b54c <ShowPopWindow+0x994>)
 800b4bc:	f8a8 2004 	strh.w	r2, [r8, #4]
 800b4c0:	eb03 0283 	add.w	r2, r3, r3, lsl #2
 800b4c4:	4422      	add	r2, r4
 800b4c6:	f8d2 2589 	ldr.w	r2, [r2, #1417]	; 0x589
 800b4ca:	f107 0068 	add.w	r0, r7, #104	; 0x68
 800b4ce:	f105 0138 	add.w	r1, r5, #56	; 0x38
 800b4d2:	f8cd 2025 	str.w	r2, [sp, #37]	; 0x25
 800b4d6:	b280      	uxth	r0, r0
 800b4d8:	b289      	uxth	r1, r1
 800b4da:	2201      	movs	r2, #1
 800b4dc:	bb33      	cbnz	r3, 800b52c <ShowPopWindow+0x974>
 800b4de:	4b20      	ldr	r3, [pc, #128]	; (800b560 <ShowPopWindow+0x9a8>)
 800b4e0:	e9cd 2301 	strd	r2, r3, [sp, #4]
 800b4e4:	2320      	movs	r3, #32
 800b4e6:	f240 72ff 	movw	r2, #2047	; 0x7ff
 800b4ea:	9300      	str	r3, [sp, #0]
 800b4ec:	f643 13e7 	movw	r3, #14823	; 0x39e7
 800b4f0:	f000 fc4a 	bl	800bd88 <Disp_Str6x8>
 800b4f4:	f04f 0c07 	mov.w	ip, #7
 800b4f8:	2108      	movs	r1, #8
 800b4fa:	4b17      	ldr	r3, [pc, #92]	; (800b558 <ShowPopWindow+0x9a0>)
 800b4fc:	4638      	mov	r0, r7
 800b4fe:	789a      	ldrb	r2, [r3, #2]
 800b500:	4b14      	ldr	r3, [pc, #80]	; (800b554 <ShowPopWindow+0x99c>)
 800b502:	4414      	add	r4, r2
 800b504:	4413      	add	r3, r2
 800b506:	791b      	ldrb	r3, [r3, #4]
 800b508:	e9cd 1c02 	strd	r1, ip, [sp, #8]
 800b50c:	4915      	ldr	r1, [pc, #84]	; (800b564 <ShowPopWindow+0x9ac>)
 800b50e:	f894 279c 	ldrb.w	r2, [r4, #1948]	; 0x79c
 800b512:	9100      	str	r1, [sp, #0]
 800b514:	f8cd 8004 	str.w	r8, [sp, #4]
 800b518:	4649      	mov	r1, r9
 800b51a:	f7fd ff0d 	bl	8009338 <ShowPopStr>
 800b51e:	f896 2050 	ldrb.w	r2, [r6, #80]	; 0x50
 800b522:	4649      	mov	r1, r9
 800b524:	4638      	mov	r0, r7
 800b526:	f7ff fabf 	bl	800aaa8 <Show_PIO_Name>
 800b52a:	e466      	b.n	800adfa <ShowPopWindow+0x242>
 800b52c:	4b0e      	ldr	r3, [pc, #56]	; (800b568 <ShowPopWindow+0x9b0>)
 800b52e:	e9cd 2301 	strd	r2, r3, [sp, #4]
 800b532:	2320      	movs	r3, #32
 800b534:	f64b 52e0 	movw	r2, #48608	; 0xbde0
 800b538:	9300      	str	r3, [sp, #0]
 800b53a:	f643 13e7 	movw	r3, #14823	; 0x39e7
 800b53e:	e7d7      	b.n	800b4f0 <ShowPopWindow+0x938>
 800b540:	2000000c 	.word	0x2000000c
 800b544:	080134aa 	.word	0x080134aa
 800b548:	08012bc6 	.word	0x08012bc6
 800b54c:	08012c0c 	.word	0x08012c0c
 800b550:	080138ff 	.word	0x080138ff
 800b554:	20000240 	.word	0x20000240
 800b558:	20004c12 	.word	0x20004c12
 800b55c:	08012bc1 	.word	0x08012bc1
 800b560:	08013905 	.word	0x08013905
 800b564:	0801357b 	.word	0x0801357b
 800b568:	08013902 	.word	0x08013902
 800b56c:	4e7e      	ldr	r6, [pc, #504]	; (800b768 <ShowPopWindow+0xbb0>)
 800b56e:	497f      	ldr	r1, [pc, #508]	; (800b76c <ShowPopWindow+0xbb4>)
 800b570:	f8b6 2064 	ldrh.w	r2, [r6, #100]	; 0x64
 800b574:	4620      	mov	r0, r4
 800b576:	f004 f9a1 	bl	800f8bc <sprintf>
 800b57a:	497d      	ldr	r1, [pc, #500]	; (800b770 <ShowPopWindow+0xbb8>)
 800b57c:	4620      	mov	r0, r4
 800b57e:	f007 fae4 	bl	8012b4a <strcat>
 800b582:	9b06      	ldr	r3, [sp, #24]
 800b584:	f8b6 2066 	ldrh.w	r2, [r6, #102]	; 0x66
 800b588:	4978      	ldr	r1, [pc, #480]	; (800b76c <ShowPopWindow+0xbb4>)
 800b58a:	4620      	mov	r0, r4
 800b58c:	9309      	str	r3, [sp, #36]	; 0x24
 800b58e:	f004 f995 	bl	800f8bc <sprintf>
 800b592:	4977      	ldr	r1, [pc, #476]	; (800b770 <ShowPopWindow+0xbb8>)
 800b594:	4620      	mov	r0, r4
 800b596:	f007 fad8 	bl	8012b4a <strcat>
 800b59a:	9b06      	ldr	r3, [sp, #24]
 800b59c:	f8b6 2068 	ldrh.w	r2, [r6, #104]	; 0x68
 800b5a0:	4972      	ldr	r1, [pc, #456]	; (800b76c <ShowPopWindow+0xbb4>)
 800b5a2:	4620      	mov	r0, r4
 800b5a4:	f8cd 302d 	str.w	r3, [sp, #45]	; 0x2d
 800b5a8:	f004 f988 	bl	800f8bc <sprintf>
 800b5ac:	4970      	ldr	r1, [pc, #448]	; (800b770 <ShowPopWindow+0xbb8>)
 800b5ae:	4620      	mov	r0, r4
 800b5b0:	f007 facb 	bl	8012b4a <strcat>
 800b5b4:	f04f 0a01 	mov.w	sl, #1
 800b5b8:	f8b6 206a 	ldrh.w	r2, [r6, #106]	; 0x6a
 800b5bc:	2620      	movs	r6, #32
 800b5be:	9b06      	ldr	r3, [sp, #24]
 800b5c0:	496a      	ldr	r1, [pc, #424]	; (800b76c <ShowPopWindow+0xbb4>)
 800b5c2:	4620      	mov	r0, r4
 800b5c4:	f8cd 3036 	str.w	r3, [sp, #54]	; 0x36
 800b5c8:	f004 f978 	bl	800f8bc <sprintf>
 800b5cc:	4968      	ldr	r1, [pc, #416]	; (800b770 <ShowPopWindow+0xbb8>)
 800b5ce:	4620      	mov	r0, r4
 800b5d0:	f007 fabb 	bl	8012b4a <strcat>
 800b5d4:	f8df b1b8 	ldr.w	fp, [pc, #440]	; 800b790 <ShowPopWindow+0xbd8>
 800b5d8:	9b06      	ldr	r3, [sp, #24]
 800b5da:	f107 0468 	add.w	r4, r7, #104	; 0x68
 800b5de:	b2a4      	uxth	r4, r4
 800b5e0:	4629      	mov	r1, r5
 800b5e2:	f8cd 303f 	str.w	r3, [sp, #63]	; 0x3f
 800b5e6:	f64b 52e0 	movw	r2, #48608	; 0xbde0
 800b5ea:	f643 13e7 	movw	r3, #14823	; 0x39e7
 800b5ee:	4620      	mov	r0, r4
 800b5f0:	f8cd b008 	str.w	fp, [sp, #8]
 800b5f4:	e9cd 6a00 	strd	r6, sl, [sp]
 800b5f8:	f000 fbc6 	bl	800bd88 <Disp_Str6x8>
 800b5fc:	f105 010e 	add.w	r1, r5, #14
 800b600:	f643 13e7 	movw	r3, #14823	; 0x39e7
 800b604:	f64b 52e0 	movw	r2, #48608	; 0xbde0
 800b608:	b289      	uxth	r1, r1
 800b60a:	4620      	mov	r0, r4
 800b60c:	e9cd ab01 	strd	sl, fp, [sp, #4]
 800b610:	9600      	str	r6, [sp, #0]
 800b612:	f000 fbb9 	bl	800bd88 <Disp_Str6x8>
 800b616:	2504      	movs	r5, #4
 800b618:	200b      	movs	r0, #11
 800b61a:	4b56      	ldr	r3, [pc, #344]	; (800b774 <ShowPopWindow+0xbbc>)
 800b61c:	4956      	ldr	r1, [pc, #344]	; (800b778 <ShowPopWindow+0xbc0>)
 800b61e:	789a      	ldrb	r2, [r3, #2]
 800b620:	4b56      	ldr	r3, [pc, #344]	; (800b77c <ShowPopWindow+0xbc4>)
 800b622:	4413      	add	r3, r2
 800b624:	440a      	add	r2, r1
 800b626:	791b      	ldrb	r3, [r3, #4]
 800b628:	f892 279c 	ldrb.w	r2, [r2, #1948]	; 0x79c
 800b62c:	e9cd 0502 	strd	r0, r5, [sp, #8]
 800b630:	f8cd 8004 	str.w	r8, [sp, #4]
 800b634:	f601 117c 	addw	r1, r1, #2428	; 0x97c
 800b638:	e4d4      	b.n	800afe4 <ShowPopWindow+0x42c>
 800b63a:	f04f 0a0a 	mov.w	sl, #10
 800b63e:	4b50      	ldr	r3, [pc, #320]	; (800b780 <ShowPopWindow+0xbc8>)
 800b640:	4e49      	ldr	r6, [pc, #292]	; (800b768 <ShowPopWindow+0xbb0>)
 800b642:	6818      	ldr	r0, [r3, #0]
 800b644:	889a      	ldrh	r2, [r3, #4]
 800b646:	9009      	str	r0, [sp, #36]	; 0x24
 800b648:	799b      	ldrb	r3, [r3, #6]
 800b64a:	f8a8 2004 	strh.w	r2, [r8, #4]
 800b64e:	f8ad 2031 	strh.w	r2, [sp, #49]	; 0x31
 800b652:	f8b6 207c 	ldrh.w	r2, [r6, #124]	; 0x7c
 800b656:	f888 3006 	strb.w	r3, [r8, #6]
 800b65a:	fb0a f202 	mul.w	r2, sl, r2
 800b65e:	f8cd 002d 	str.w	r0, [sp, #45]	; 0x2d
 800b662:	4948      	ldr	r1, [pc, #288]	; (800b784 <ShowPopWindow+0xbcc>)
 800b664:	4620      	mov	r0, r4
 800b666:	f88d 3033 	strb.w	r3, [sp, #51]	; 0x33
 800b66a:	f004 f927 	bl	800f8bc <sprintf>
 800b66e:	4946      	ldr	r1, [pc, #280]	; (800b788 <ShowPopWindow+0xbd0>)
 800b670:	4620      	mov	r0, r4
 800b672:	f007 fa6a 	bl	8012b4a <strcat>
 800b676:	88a2      	ldrh	r2, [r4, #4]
 800b678:	9806      	ldr	r0, [sp, #24]
 800b67a:	f8ad 203a 	strh.w	r2, [sp, #58]	; 0x3a
 800b67e:	f8b6 207e 	ldrh.w	r2, [r6, #126]	; 0x7e
 800b682:	79a3      	ldrb	r3, [r4, #6]
 800b684:	fb0a f202 	mul.w	r2, sl, r2
 800b688:	f8cd 0036 	str.w	r0, [sp, #54]	; 0x36
 800b68c:	493d      	ldr	r1, [pc, #244]	; (800b784 <ShowPopWindow+0xbcc>)
 800b68e:	4620      	mov	r0, r4
 800b690:	f88d 303c 	strb.w	r3, [sp, #60]	; 0x3c
 800b694:	f004 f912 	bl	800f8bc <sprintf>
 800b698:	493b      	ldr	r1, [pc, #236]	; (800b788 <ShowPopWindow+0xbd0>)
 800b69a:	4620      	mov	r0, r4
 800b69c:	f007 fa55 	bl	8012b4a <strcat>
 800b6a0:	88a2      	ldrh	r2, [r4, #4]
 800b6a2:	9806      	ldr	r0, [sp, #24]
 800b6a4:	79a3      	ldrb	r3, [r4, #6]
 800b6a6:	f8cd 003f 	str.w	r0, [sp, #63]	; 0x3f
 800b6aa:	f8ad 2043 	strh.w	r2, [sp, #67]	; 0x43
 800b6ae:	492f      	ldr	r1, [pc, #188]	; (800b76c <ShowPopWindow+0xbb4>)
 800b6b0:	f8b6 2080 	ldrh.w	r2, [r6, #128]	; 0x80
 800b6b4:	4620      	mov	r0, r4
 800b6b6:	f88d 3045 	strb.w	r3, [sp, #69]	; 0x45
 800b6ba:	f004 f8ff 	bl	800f8bc <sprintf>
 800b6be:	4933      	ldr	r1, [pc, #204]	; (800b78c <ShowPopWindow+0xbd4>)
 800b6c0:	4620      	mov	r0, r4
 800b6c2:	f007 fa42 	bl	8012b4a <strcat>
 800b6c6:	e894 0003 	ldmia.w	r4, {r0, r1}
 800b6ca:	f8b6 2082 	ldrh.w	r2, [r6, #130]	; 0x82
 800b6ce:	f04f 0a01 	mov.w	sl, #1
 800b6d2:	2620      	movs	r6, #32
 800b6d4:	f8ad 104c 	strh.w	r1, [sp, #76]	; 0x4c
 800b6d8:	0c09      	lsrs	r1, r1, #16
 800b6da:	9012      	str	r0, [sp, #72]	; 0x48
 800b6dc:	f88d 104e 	strb.w	r1, [sp, #78]	; 0x4e
 800b6e0:	4620      	mov	r0, r4
 800b6e2:	4922      	ldr	r1, [pc, #136]	; (800b76c <ShowPopWindow+0xbb4>)
 800b6e4:	f004 f8ea 	bl	800f8bc <sprintf>
 800b6e8:	4928      	ldr	r1, [pc, #160]	; (800b78c <ShowPopWindow+0xbd4>)
 800b6ea:	4620      	mov	r0, r4
 800b6ec:	f007 fa2d 	bl	8012b4a <strcat>
 800b6f0:	f8df b09c 	ldr.w	fp, [pc, #156]	; 800b790 <ShowPopWindow+0xbd8>
 800b6f4:	88a2      	ldrh	r2, [r4, #4]
 800b6f6:	79a3      	ldrb	r3, [r4, #6]
 800b6f8:	9806      	ldr	r0, [sp, #24]
 800b6fa:	f107 047a 	add.w	r4, r7, #122	; 0x7a
 800b6fe:	b2a4      	uxth	r4, r4
 800b700:	f105 0138 	add.w	r1, r5, #56	; 0x38
 800b704:	f8cd 0051 	str.w	r0, [sp, #81]	; 0x51
 800b708:	f8ad 2055 	strh.w	r2, [sp, #85]	; 0x55
 800b70c:	4620      	mov	r0, r4
 800b70e:	f88d 3057 	strb.w	r3, [sp, #87]	; 0x57
 800b712:	f64b 52e0 	movw	r2, #48608	; 0xbde0
 800b716:	f643 13e7 	movw	r3, #14823	; 0x39e7
 800b71a:	b289      	uxth	r1, r1
 800b71c:	f8cd b008 	str.w	fp, [sp, #8]
 800b720:	e9cd 6a00 	strd	r6, sl, [sp]
 800b724:	f000 fb30 	bl	800bd88 <Disp_Str6x8>
 800b728:	f105 0146 	add.w	r1, r5, #70	; 0x46
 800b72c:	4620      	mov	r0, r4
 800b72e:	f643 13e7 	movw	r3, #14823	; 0x39e7
 800b732:	f64b 52e0 	movw	r2, #48608	; 0xbde0
 800b736:	b289      	uxth	r1, r1
 800b738:	e9cd ab01 	strd	sl, fp, [sp, #4]
 800b73c:	9600      	str	r6, [sp, #0]
 800b73e:	f000 fb23 	bl	800bd88 <Disp_Str6x8>
 800b742:	2407      	movs	r4, #7
 800b744:	200b      	movs	r0, #11
 800b746:	4b0b      	ldr	r3, [pc, #44]	; (800b774 <ShowPopWindow+0xbbc>)
 800b748:	490b      	ldr	r1, [pc, #44]	; (800b778 <ShowPopWindow+0xbc0>)
 800b74a:	789a      	ldrb	r2, [r3, #2]
 800b74c:	4b0b      	ldr	r3, [pc, #44]	; (800b77c <ShowPopWindow+0xbc4>)
 800b74e:	4413      	add	r3, r2
 800b750:	440a      	add	r2, r1
 800b752:	791b      	ldrb	r3, [r3, #4]
 800b754:	f892 279c 	ldrb.w	r2, [r2, #1948]	; 0x79c
 800b758:	e9cd 0402 	strd	r0, r4, [sp, #8]
 800b75c:	f8cd 8004 	str.w	r8, [sp, #4]
 800b760:	f501 611b 	add.w	r1, r1, #2480	; 0x9b0
 800b764:	e43e      	b.n	800afe4 <ShowPopWindow+0x42c>
 800b766:	bf00      	nop
 800b768:	2000000c 	.word	0x2000000c
 800b76c:	08013880 	.word	0x08013880
 800b770:	08012bc7 	.word	0x08012bc7
 800b774:	20004c12 	.word	0x20004c12
 800b778:	08012c0c 	.word	0x08012c0c
 800b77c:	20000240 	.word	0x20000240
 800b780:	08013908 	.word	0x08013908
 800b784:	08013884 	.word	0x08013884
 800b788:	08013911 	.word	0x08013911
 800b78c:	08013915 	.word	0x08013915
 800b790:	08013902 	.word	0x08013902

0800b794 <ShowPopItem>:
 800b794:	b51f      	push	{r0, r1, r2, r3, r4, lr}
 800b796:	2806      	cmp	r0, #6
 800b798:	d813      	bhi.n	800b7c2 <ShowPopItem+0x2e>
 800b79a:	e8df f000 	tbb	[pc, r0]
 800b79e:	1504      	.short	0x1504
 800b7a0:	8e817365 	.word	0x8e817365
 800b7a4:	98          	.byte	0x98
 800b7a5:	00          	.byte	0x00
 800b7a6:	f643 13e7 	movw	r3, #14823	; 0x39e7
 800b7aa:	2100      	movs	r1, #0
 800b7ac:	e9cd 3101 	strd	r3, r1, [sp, #4]
 800b7b0:	f64b 53e0 	movw	r3, #48608	; 0xbde0
 800b7b4:	2272      	movs	r2, #114	; 0x72
 800b7b6:	9300      	str	r3, [sp, #0]
 800b7b8:	21d8      	movs	r1, #216	; 0xd8
 800b7ba:	2322      	movs	r3, #34	; 0x22
 800b7bc:	2028      	movs	r0, #40	; 0x28
 800b7be:	f7ff f9fb 	bl	800abb8 <ShowPopWindow>
 800b7c2:	b005      	add	sp, #20
 800b7c4:	f85d fb04 	ldr.w	pc, [sp], #4
 800b7c8:	4b47      	ldr	r3, [pc, #284]	; (800b8e8 <ShowPopItem+0x154>)
 800b7ca:	781b      	ldrb	r3, [r3, #0]
 800b7cc:	2b01      	cmp	r3, #1
 800b7ce:	d13e      	bne.n	800b84e <ShowPopItem+0xba>
 800b7d0:	f240 1219 	movw	r2, #281	; 0x119
 800b7d4:	4945      	ldr	r1, [pc, #276]	; (800b8ec <ShowPopItem+0x158>)
 800b7d6:	4846      	ldr	r0, [pc, #280]	; (800b8f0 <ShowPopItem+0x15c>)
 800b7d8:	f007 f9a4 	bl	8012b24 <memcpy>
 800b7dc:	4a44      	ldr	r2, [pc, #272]	; (800b8f0 <ShowPopItem+0x15c>)
 800b7de:	f44f 718c 	mov.w	r1, #280	; 0x118
 800b7e2:	2003      	movs	r0, #3
 800b7e4:	f000 fd1a 	bl	800c21c <FPGA_LCD_RW>
 800b7e8:	f44f 7296 	mov.w	r2, #300	; 0x12c
 800b7ec:	2102      	movs	r1, #2
 800b7ee:	2019      	movs	r0, #25
 800b7f0:	f000 fcfc 	bl	800c1ec <FPGA_ReadWrite>
 800b7f4:	f44f 7296 	mov.w	r2, #300	; 0x12c
 800b7f8:	2102      	movs	r1, #2
 800b7fa:	201a      	movs	r0, #26
 800b7fc:	f000 fcf6 	bl	800c1ec <FPGA_ReadWrite>
 800b800:	f44f 7296 	mov.w	r2, #300	; 0x12c
 800b804:	2102      	movs	r1, #2
 800b806:	201b      	movs	r0, #27
 800b808:	f000 fcf0 	bl	800c1ec <FPGA_ReadWrite>
 800b80c:	f44f 7296 	mov.w	r2, #300	; 0x12c
 800b810:	2102      	movs	r1, #2
 800b812:	2018      	movs	r0, #24
 800b814:	f000 fcea 	bl	800c1ec <FPGA_ReadWrite>
 800b818:	23db      	movs	r3, #219	; 0xdb
 800b81a:	f240 123f 	movw	r2, #319	; 0x13f
 800b81e:	2142      	movs	r1, #66	; 0x42
 800b820:	2028      	movs	r0, #40	; 0x28
 800b822:	f000 f9bf 	bl	800bba4 <Set_Block>
 800b826:	4933      	ldr	r1, [pc, #204]	; (800b8f4 <ShowPopItem+0x160>)
 800b828:	2008      	movs	r0, #8
 800b82a:	f7f4 fc69 	bl	8000100 <__Bios>
 800b82e:	2200      	movs	r2, #0
 800b830:	2006      	movs	r0, #6
 800b832:	4611      	mov	r1, r2
 800b834:	f000 fcda 	bl	800c1ec <FPGA_ReadWrite>
 800b838:	200a      	movs	r0, #10
 800b83a:	f000 fd37 	bl	800c2ac <Delay_mS>
 800b83e:	492e      	ldr	r1, [pc, #184]	; (800b8f8 <ShowPopItem+0x164>)
 800b840:	2008      	movs	r0, #8
 800b842:	f7f4 fc5d 	bl	8000100 <__Bios>
 800b846:	4b2d      	ldr	r3, [pc, #180]	; (800b8fc <ShowPopItem+0x168>)
 800b848:	7818      	ldrb	r0, [r3, #0]
 800b84a:	f002 fa2a 	bl	800dca2 <Show_AnalyzeData>
 800b84e:	f643 13e7 	movw	r3, #14823	; 0x39e7
 800b852:	2201      	movs	r2, #1
 800b854:	e9cd 3201 	strd	r3, r2, [sp, #4]
 800b858:	f64b 53e0 	movw	r3, #48608	; 0xbde0
 800b85c:	227e      	movs	r2, #126	; 0x7e
 800b85e:	9300      	str	r3, [sp, #0]
 800b860:	21d8      	movs	r1, #216	; 0xd8
 800b862:	233e      	movs	r3, #62	; 0x3e
 800b864:	2032      	movs	r0, #50	; 0x32
 800b866:	e7aa      	b.n	800b7be <ShowPopItem+0x2a>
 800b868:	f643 13e7 	movw	r3, #14823	; 0x39e7
 800b86c:	f04f 0e02 	mov.w	lr, #2
 800b870:	e9cd 3e01 	strd	r3, lr, [sp, #4]
 800b874:	f64b 53e0 	movw	r3, #48608	; 0xbde0
 800b878:	228a      	movs	r2, #138	; 0x8a
 800b87a:	9300      	str	r3, [sp, #0]
 800b87c:	21d8      	movs	r1, #216	; 0xd8
 800b87e:	234c      	movs	r3, #76	; 0x4c
 800b880:	205a      	movs	r0, #90	; 0x5a
 800b882:	e79c      	b.n	800b7be <ShowPopItem+0x2a>
 800b884:	f643 13e7 	movw	r3, #14823	; 0x39e7
 800b888:	f04f 0c03 	mov.w	ip, #3
 800b88c:	e9cd 3c01 	strd	r3, ip, [sp, #4]
 800b890:	f64b 53e0 	movw	r3, #48608	; 0xbde0
 800b894:	2278      	movs	r2, #120	; 0x78
 800b896:	9300      	str	r3, [sp, #0]
 800b898:	21d8      	movs	r1, #216	; 0xd8
 800b89a:	2322      	movs	r3, #34	; 0x22
 800b89c:	2096      	movs	r0, #150	; 0x96
 800b89e:	e78e      	b.n	800b7be <ShowPopItem+0x2a>
 800b8a0:	f643 13e7 	movw	r3, #14823	; 0x39e7
 800b8a4:	2004      	movs	r0, #4
 800b8a6:	e9cd 3001 	strd	r3, r0, [sp, #4]
 800b8aa:	f64b 53e0 	movw	r3, #48608	; 0xbde0
 800b8ae:	9300      	str	r3, [sp, #0]
 800b8b0:	234c      	movs	r3, #76	; 0x4c
 800b8b2:	2278      	movs	r2, #120	; 0x78
 800b8b4:	21d8      	movs	r1, #216	; 0xd8
 800b8b6:	20c8      	movs	r0, #200	; 0xc8
 800b8b8:	e781      	b.n	800b7be <ShowPopItem+0x2a>
 800b8ba:	f643 13e7 	movw	r3, #14823	; 0x39e7
 800b8be:	2105      	movs	r1, #5
 800b8c0:	e9cd 3101 	strd	r3, r1, [sp, #4]
 800b8c4:	f64b 53e0 	movw	r3, #48608	; 0xbde0
 800b8c8:	9300      	str	r3, [sp, #0]
 800b8ca:	2322      	movs	r3, #34	; 0x22
 800b8cc:	e7f1      	b.n	800b8b2 <ShowPopItem+0x11e>
 800b8ce:	f643 13e7 	movw	r3, #14823	; 0x39e7
 800b8d2:	2206      	movs	r2, #6
 800b8d4:	e9cd 3201 	strd	r3, r2, [sp, #4]
 800b8d8:	f64b 53e0 	movw	r3, #48608	; 0xbde0
 800b8dc:	228a      	movs	r2, #138	; 0x8a
 800b8de:	9300      	str	r3, [sp, #0]
 800b8e0:	21d8      	movs	r1, #216	; 0xd8
 800b8e2:	235a      	movs	r3, #90	; 0x5a
 800b8e4:	20b4      	movs	r0, #180	; 0xb4
 800b8e6:	e76a      	b.n	800b7be <ShowPopItem+0x2a>
 800b8e8:	20004c12 	.word	0x20004c12
 800b8ec:	20000af3 	.word	0x20000af3
 800b8f0:	200009da 	.word	0x200009da
 800b8f4:	fff90000 	.word	0xfff90000
 800b8f8:	fffb0000 	.word	0xfffb0000
 800b8fc:	2000000c 	.word	0x2000000c

0800b900 <NMIException>:
 800b900:	4770      	bx	lr

0800b902 <HardFaultException>:
 800b902:	e7fe      	b.n	800b902 <HardFaultException>

0800b904 <MemManageException>:
 800b904:	e7fe      	b.n	800b904 <MemManageException>

0800b906 <BusFaultException>:
 800b906:	e7fe      	b.n	800b906 <BusFaultException>

0800b908 <UsageFaultException>:
 800b908:	e7fe      	b.n	800b908 <UsageFaultException>

0800b90a <DebugMonitor>:
 800b90a:	4770      	bx	lr

0800b90c <SVCHandler>:
 800b90c:	4770      	bx	lr

0800b90e <PendSVC>:
 800b90e:	4770      	bx	lr

0800b910 <SysTick_Handler>:
 800b910:	4a52      	ldr	r2, [pc, #328]	; (800ba5c <SysTick_Handler+0x14c>)
 800b912:	b5f8      	push	{r3, r4, r5, r6, r7, lr}
 800b914:	8813      	ldrh	r3, [r2, #0]
 800b916:	b10b      	cbz	r3, 800b91c <SysTick_Handler+0xc>
 800b918:	3b01      	subs	r3, #1
 800b91a:	8013      	strh	r3, [r2, #0]
 800b91c:	4c50      	ldr	r4, [pc, #320]	; (800ba60 <SysTick_Handler+0x150>)
 800b91e:	8823      	ldrh	r3, [r4, #0]
 800b920:	b29b      	uxth	r3, r3
 800b922:	b11b      	cbz	r3, 800b92c <SysTick_Handler+0x1c>
 800b924:	8823      	ldrh	r3, [r4, #0]
 800b926:	3b01      	subs	r3, #1
 800b928:	b29b      	uxth	r3, r3
 800b92a:	8023      	strh	r3, [r4, #0]
 800b92c:	8863      	ldrh	r3, [r4, #2]
 800b92e:	3301      	adds	r3, #1
 800b930:	8063      	strh	r3, [r4, #2]
 800b932:	88a3      	ldrh	r3, [r4, #4]
 800b934:	3301      	adds	r3, #1
 800b936:	b29b      	uxth	r3, r3
 800b938:	80a3      	strh	r3, [r4, #4]
 800b93a:	07db      	lsls	r3, r3, #31
 800b93c:	d462      	bmi.n	800ba04 <SysTick_Handler+0xf4>
 800b93e:	4949      	ldr	r1, [pc, #292]	; (800ba64 <SysTick_Handler+0x154>)
 800b940:	2006      	movs	r0, #6
 800b942:	f7f4 fbdd 	bl	8000100 <__Bios>
 800b946:	b280      	uxth	r0, r0
 800b948:	f9b4 3006 	ldrsh.w	r3, [r4, #6]
 800b94c:	f400 4170 	and.w	r1, r0, #61440	; 0xf000
 800b950:	b20a      	sxth	r2, r1
 800b952:	ea22 0503 	bic.w	r5, r2, r3
 800b956:	ea23 0302 	bic.w	r3, r3, r2
 800b95a:	b29b      	uxth	r3, r3
 800b95c:	04df      	lsls	r7, r3, #19
 800b95e:	b2ae      	uxth	r6, r5
 800b960:	80e1      	strh	r1, [r4, #6]
 800b962:	d509      	bpl.n	800b978 <SysTick_Handler+0x68>
 800b964:	f410 5f00 	tst.w	r0, #8192	; 0x2000
 800b968:	bf14      	ite	ne
 800b96a:	f44f 5180 	movne.w	r1, #4096	; 0x1000
 800b96e:	f44f 5100 	moveq.w	r1, #8192	; 0x2000
 800b972:	8927      	ldrh	r7, [r4, #8]
 800b974:	4339      	orrs	r1, r7
 800b976:	8121      	strh	r1, [r4, #8]
 800b978:	04b6      	lsls	r6, r6, #18
 800b97a:	d509      	bpl.n	800b990 <SysTick_Handler+0x80>
 800b97c:	f410 5f80 	tst.w	r0, #4096	; 0x1000
 800b980:	bf14      	ite	ne
 800b982:	f44f 5180 	movne.w	r1, #4096	; 0x1000
 800b986:	f44f 5100 	moveq.w	r1, #8192	; 0x2000
 800b98a:	8926      	ldrh	r6, [r4, #8]
 800b98c:	4331      	orrs	r1, r6
 800b98e:	8121      	strh	r1, [r4, #8]
 800b990:	0459      	lsls	r1, r3, #17
 800b992:	d507      	bpl.n	800b9a4 <SysTick_Handler+0x94>
 800b994:	2a00      	cmp	r2, #0
 800b996:	4b34      	ldr	r3, [pc, #208]	; (800ba68 <SysTick_Handler+0x158>)
 800b998:	bfa8      	it	ge
 800b99a:	f44f 4380 	movge.w	r3, #16384	; 0x4000
 800b99e:	8922      	ldrh	r2, [r4, #8]
 800b9a0:	4313      	orrs	r3, r2
 800b9a2:	8123      	strh	r3, [r4, #8]
 800b9a4:	2d00      	cmp	r5, #0
 800b9a6:	da08      	bge.n	800b9ba <SysTick_Handler+0xaa>
 800b9a8:	f410 4f80 	tst.w	r0, #16384	; 0x4000
 800b9ac:	4b2e      	ldr	r3, [pc, #184]	; (800ba68 <SysTick_Handler+0x158>)
 800b9ae:	bf08      	it	eq
 800b9b0:	f44f 4380 	moveq.w	r3, #16384	; 0x4000
 800b9b4:	8922      	ldrh	r2, [r4, #8]
 800b9b6:	4313      	orrs	r3, r2
 800b9b8:	8123      	strh	r3, [r4, #8]
 800b9ba:	88a3      	ldrh	r3, [r4, #4]
 800b9bc:	06db      	lsls	r3, r3, #27
 800b9be:	d11c      	bne.n	800b9fa <SysTick_Handler+0xea>
 800b9c0:	89a2      	ldrh	r2, [r4, #12]
 800b9c2:	f000 000f 	and.w	r0, r0, #15
 800b9c6:	8923      	ldrh	r3, [r4, #8]
 800b9c8:	ea20 0102 	bic.w	r1, r0, r2
 800b9cc:	ea43 2301 	orr.w	r3, r3, r1, lsl #8
 800b9d0:	ea22 0200 	bic.w	r2, r2, r0
 800b9d4:	ea43 1302 	orr.w	r3, r3, r2, lsl #4
 800b9d8:	8160      	strh	r0, [r4, #10]
 800b9da:	81a0      	strh	r0, [r4, #12]
 800b9dc:	4923      	ldr	r1, [pc, #140]	; (800ba6c <SysTick_Handler+0x15c>)
 800b9de:	2004      	movs	r0, #4
 800b9e0:	8123      	strh	r3, [r4, #8]
 800b9e2:	f7f4 fb8d 	bl	8000100 <__Bios>
 800b9e6:	4a22      	ldr	r2, [pc, #136]	; (800ba70 <SysTick_Handler+0x160>)
 800b9e8:	6813      	ldr	r3, [r2, #0]
 800b9ea:	eba3 1393 	sub.w	r3, r3, r3, lsr #6
 800b9ee:	4403      	add	r3, r0
 800b9f0:	6013      	str	r3, [r2, #0]
 800b9f2:	f000 fefd 	bl	800c7f0 <GetBatteryVol>
 800b9f6:	4b1f      	ldr	r3, [pc, #124]	; (800ba74 <SysTick_Handler+0x164>)
 800b9f8:	8018      	strh	r0, [r3, #0]
 800b9fa:	89e3      	ldrh	r3, [r4, #14]
 800b9fc:	2b01      	cmp	r3, #1
 800b9fe:	d927      	bls.n	800ba50 <SysTick_Handler+0x140>
 800ba00:	3b02      	subs	r3, #2
 800ba02:	81e3      	strh	r3, [r4, #14]
 800ba04:	f241 3388 	movw	r3, #5000	; 0x1388
 800ba08:	88a2      	ldrh	r2, [r4, #4]
 800ba0a:	429a      	cmp	r2, r3
 800ba0c:	bf84      	itt	hi
 800ba0e:	2300      	movhi	r3, #0
 800ba10:	80a3      	strhhi	r3, [r4, #4]
 800ba12:	8863      	ldrh	r3, [r4, #2]
 800ba14:	f5b3 7f7a 	cmp.w	r3, #1000	; 0x3e8
 800ba18:	d319      	bcc.n	800ba4e <SysTick_Handler+0x13e>
 800ba1a:	2300      	movs	r3, #0
 800ba1c:	8063      	strh	r3, [r4, #2]
 800ba1e:	4b16      	ldr	r3, [pc, #88]	; (800ba78 <SysTick_Handler+0x168>)
 800ba20:	f8b3 2080 	ldrh.w	r2, [r3, #128]	; 0x80
 800ba24:	b122      	cbz	r2, 800ba30 <SysTick_Handler+0x120>
 800ba26:	4915      	ldr	r1, [pc, #84]	; (800ba7c <SysTick_Handler+0x16c>)
 800ba28:	880a      	ldrh	r2, [r1, #0]
 800ba2a:	b10a      	cbz	r2, 800ba30 <SysTick_Handler+0x120>
 800ba2c:	3a01      	subs	r2, #1
 800ba2e:	800a      	strh	r2, [r1, #0]
 800ba30:	f8b3 3082 	ldrh.w	r3, [r3, #130]	; 0x82
 800ba34:	b123      	cbz	r3, 800ba40 <SysTick_Handler+0x130>
 800ba36:	4a12      	ldr	r2, [pc, #72]	; (800ba80 <SysTick_Handler+0x170>)
 800ba38:	8813      	ldrh	r3, [r2, #0]
 800ba3a:	b10b      	cbz	r3, 800ba40 <SysTick_Handler+0x130>
 800ba3c:	3b01      	subs	r3, #1
 800ba3e:	8013      	strh	r3, [r2, #0]
 800ba40:	f000 fede 	bl	800c800 <Get_USB_Vol>
 800ba44:	2201      	movs	r2, #1
 800ba46:	4b0f      	ldr	r3, [pc, #60]	; (800ba84 <SysTick_Handler+0x174>)
 800ba48:	8018      	strh	r0, [r3, #0]
 800ba4a:	4b0f      	ldr	r3, [pc, #60]	; (800ba88 <SysTick_Handler+0x178>)
 800ba4c:	701a      	strb	r2, [r3, #0]
 800ba4e:	bdf8      	pop	{r3, r4, r5, r6, r7, pc}
 800ba50:	2100      	movs	r1, #0
 800ba52:	2005      	movs	r0, #5
 800ba54:	f7f4 fb54 	bl	8000100 <__Bios>
 800ba58:	e7d4      	b.n	800ba04 <SysTick_Handler+0xf4>
 800ba5a:	bf00      	nop
 800ba5c:	200009d0 	.word	0x200009d0
 800ba60:	200009ae 	.word	0x200009ae
 800ba64:	fffc0000 	.word	0xfffc0000
 800ba68:	ffff8000 	.word	0xffff8000
 800ba6c:	fffb0000 	.word	0xfffb0000
 800ba70:	200000dc 	.word	0x200000dc
 800ba74:	20000104 	.word	0x20000104
 800ba78:	2000000c 	.word	0x2000000c
 800ba7c:	200009d4 	.word	0x200009d4
 800ba80:	200009d2 	.word	0x200009d2
 800ba84:	200009cc 	.word	0x200009cc
 800ba88:	200000d8 	.word	0x200000d8

0800ba8c <Beep_mS>:
 800ba8c:	b508      	push	{r3, lr}
 800ba8e:	4b08      	ldr	r3, [pc, #32]	; (800bab0 <Beep_mS+0x24>)
 800ba90:	2101      	movs	r1, #1
 800ba92:	81d8      	strh	r0, [r3, #14]
 800ba94:	2005      	movs	r0, #5
 800ba96:	f7f4 fb33 	bl	8000100 <__Bios>
 800ba9a:	210a      	movs	r1, #10
 800ba9c:	4b05      	ldr	r3, [pc, #20]	; (800bab4 <Beep_mS+0x28>)
 800ba9e:	2005      	movs	r0, #5
 800baa0:	f8b3 307c 	ldrh.w	r3, [r3, #124]	; 0x7c
 800baa4:	4359      	muls	r1, r3
 800baa6:	e8bd 4008 	ldmia.w	sp!, {r3, lr}
 800baaa:	f7f4 bb29 	b.w	8000100 <__Bios>
 800baae:	bf00      	nop
 800bab0:	200009ae 	.word	0x200009ae
 800bab4:	2000000c 	.word	0x2000000c

0800bab8 <WWDG_IRQHandler>:
 800bab8:	4770      	bx	lr

0800baba <PVD_IRQHandler>:
 800baba:	4770      	bx	lr

0800babc <TAMPER_IRQHandler>:
 800babc:	4770      	bx	lr

0800babe <RTC_IRQHandler>:
 800babe:	4770      	bx	lr

0800bac0 <FLASH_IRQHandler>:
 800bac0:	4770      	bx	lr

0800bac2 <RCC_IRQHandler>:
 800bac2:	4770      	bx	lr

0800bac4 <EXTI0_IRQHandler>:
 800bac4:	4770      	bx	lr

0800bac6 <EXTI1_IRQHandler>:
 800bac6:	4770      	bx	lr

0800bac8 <EXTI2_IRQHandler>:
 800bac8:	4770      	bx	lr

0800baca <EXTI3_IRQHandler>:
 800baca:	4770      	bx	lr

0800bacc <EXTI4_IRQHandler>:
 800bacc:	4770      	bx	lr

0800bace <DMA1_Channel1_IRQHandler>:
 800bace:	4770      	bx	lr

0800bad0 <DMA1_Channel2_IRQHandler>:
 800bad0:	4770      	bx	lr

0800bad2 <DMA1_Channel3_IRQHandler>:
 800bad2:	4770      	bx	lr

0800bad4 <DMA1_Channel4_IRQHandler>:
 800bad4:	4770      	bx	lr

0800bad6 <DMA1_Channel5_IRQHandler>:
 800bad6:	4770      	bx	lr

0800bad8 <DMA1_Channel6_IRQHandler>:
 800bad8:	4770      	bx	lr

0800bada <DMA1_Channel7_IRQHandler>:
 800bada:	4770      	bx	lr

0800badc <ADC1_2_IRQHandler>:
 800badc:	4770      	bx	lr

0800bade <USB_HP_CAN1_TX_IRQHandler>:
 800bade:	4770      	bx	lr

0800bae0 <USB_LP_CAN1_RX0_IRQHandler>:
 800bae0:	f006 bb30 	b.w	8012144 <USB_Istr>

0800bae4 <CAN_RX1_IRQHandler>:
 800bae4:	4770      	bx	lr

0800bae6 <CAN_SCE_IRQHandler>:
 800bae6:	4770      	bx	lr

0800bae8 <EXTI9_5_IRQHandler>:
 800bae8:	4770      	bx	lr

0800baea <TIM1_BRK_IRQHandler>:
 800baea:	4770      	bx	lr

0800baec <TIM1_UP_IRQHandler>:
 800baec:	4770      	bx	lr

0800baee <TIM1_TRG_COM_IRQHandler>:
 800baee:	4770      	bx	lr

0800baf0 <TIM1_CC_IRQHandler>:
 800baf0:	4770      	bx	lr

0800baf2 <TIM2_IRQHandler>:
 800baf2:	4770      	bx	lr

0800baf4 <TIM3_IRQHandler>:
 800baf4:	4770      	bx	lr

0800baf6 <TIM4_IRQHandler>:
 800baf6:	4770      	bx	lr

0800baf8 <I2C1_EV_IRQHandler>:
 800baf8:	4770      	bx	lr

0800bafa <I2C1_ER_IRQHandler>:
 800bafa:	4770      	bx	lr

0800bafc <I2C2_EV_IRQHandler>:
 800bafc:	4770      	bx	lr

0800bafe <I2C2_ER_IRQHandler>:
 800bafe:	4770      	bx	lr

0800bb00 <SPI1_IRQHandler>:
 800bb00:	4770      	bx	lr

0800bb02 <SPI2_IRQHandler>:
 800bb02:	4770      	bx	lr

0800bb04 <USART1_IRQHandler>:
 800bb04:	4770      	bx	lr

0800bb06 <USART2_IRQHandler>:
 800bb06:	4770      	bx	lr

0800bb08 <USART3_IRQHandler>:
 800bb08:	4770      	bx	lr

0800bb0a <EXTI15_10_IRQHandler>:
 800bb0a:	4770      	bx	lr

0800bb0c <RTCAlarm_IRQHandler>:
 800bb0c:	4770      	bx	lr

0800bb0e <USBWakeUp_IRQHandler>:
 800bb0e:	4770      	bx	lr

0800bb10 <TIM8_BRK_IRQHandler>:
 800bb10:	4770      	bx	lr

0800bb12 <TIM8_UP_IRQHandler>:
 800bb12:	4770      	bx	lr

0800bb14 <TIM8_TRG_COM_IRQHandler>:
 800bb14:	4770      	bx	lr

0800bb16 <TIM8_CC_IRQHandler>:
 800bb16:	4770      	bx	lr

0800bb18 <ADC3_IRQHandler>:
 800bb18:	4770      	bx	lr

0800bb1a <FSMC_IRQHandler>:
 800bb1a:	4770      	bx	lr

0800bb1c <SDIO_IRQHandler>:
 800bb1c:	4770      	bx	lr

0800bb1e <TIM5_IRQHandler>:
 800bb1e:	4770      	bx	lr

0800bb20 <SPI3_IRQHandler>:
 800bb20:	4770      	bx	lr

0800bb22 <UART4_IRQHandler>:
 800bb22:	4770      	bx	lr

0800bb24 <UART5_IRQHandler>:
 800bb24:	4770      	bx	lr

0800bb26 <TIM6_IRQHandler>:
 800bb26:	4770      	bx	lr

0800bb28 <TIM7_IRQHandler>:
 800bb28:	4770      	bx	lr

0800bb2a <DMA2_Channel1_IRQHandler>:
 800bb2a:	4770      	bx	lr

0800bb2c <DMA2_Channel2_IRQHandler>:
 800bb2c:	4770      	bx	lr

0800bb2e <DMA2_Channel3_IRQHandler>:
 800bb2e:	4770      	bx	lr

0800bb30 <DMA2_Channel4_5_IRQHandler>:
 800bb30:	4770      	bx	lr
 800bb32:	bf00      	nop

0800bb34 <Set_Posi>:
 800bb34:	b510      	push	{r4, lr}
 800bb36:	460c      	mov	r4, r1
 800bb38:	4601      	mov	r1, r0
 800bb3a:	200b      	movs	r0, #11
 800bb3c:	f7f4 fae0 	bl	8000100 <__Bios>
 800bb40:	4621      	mov	r1, r4
 800bb42:	e8bd 4010 	ldmia.w	sp!, {r4, lr}
 800bb46:	200c      	movs	r0, #12
 800bb48:	f7f4 bada 	b.w	8000100 <__Bios>

0800bb4c <Set_Pixel>:
 800bb4c:	4601      	mov	r1, r0
 800bb4e:	200d      	movs	r0, #13
 800bb50:	f7f4 bad6 	b.w	8000100 <__Bios>

0800bb54 <Read_Pixel>:
 800bb54:	b508      	push	{r3, lr}
 800bb56:	2100      	movs	r1, #0
 800bb58:	200e      	movs	r0, #14
 800bb5a:	f7f4 fad1 	bl	8000100 <__Bios>
 800bb5e:	b280      	uxth	r0, r0
 800bb60:	bd08      	pop	{r3, pc}

0800bb62 <Add_Pixel_Color>:
 800bb62:	b538      	push	{r3, r4, r5, lr}
 800bb64:	460d      	mov	r5, r1
 800bb66:	4614      	mov	r4, r2
 800bb68:	4601      	mov	r1, r0
 800bb6a:	200b      	movs	r0, #11
 800bb6c:	f7f4 fac8 	bl	8000100 <__Bios>
 800bb70:	4629      	mov	r1, r5
 800bb72:	200c      	movs	r0, #12
 800bb74:	f7f4 fac4 	bl	8000100 <__Bios>
 800bb78:	4621      	mov	r1, r4
 800bb7a:	e8bd 4038 	ldmia.w	sp!, {r3, r4, r5, lr}
 800bb7e:	200d      	movs	r0, #13
 800bb80:	f7f4 babe 	b.w	8000100 <__Bios>

0800bb84 <Read_Pixel_Color>:
 800bb84:	b510      	push	{r4, lr}
 800bb86:	460c      	mov	r4, r1
 800bb88:	4601      	mov	r1, r0
 800bb8a:	200b      	movs	r0, #11
 800bb8c:	f7f4 fab8 	bl	8000100 <__Bios>
 800bb90:	4621      	mov	r1, r4
 800bb92:	200c      	movs	r0, #12
 800bb94:	f7f4 fab4 	bl	8000100 <__Bios>
 800bb98:	2100      	movs	r1, #0
 800bb9a:	200e      	movs	r0, #14
 800bb9c:	f7f4 fab0 	bl	8000100 <__Bios>
 800bba0:	b280      	uxth	r0, r0
 800bba2:	bd10      	pop	{r4, pc}

0800bba4 <Set_Block>:
 800bba4:	b538      	push	{r3, r4, r5, lr}
 800bba6:	460d      	mov	r5, r1
 800bba8:	461c      	mov	r4, r3
 800bbaa:	eb02 4100 	add.w	r1, r2, r0, lsl #16
 800bbae:	2009      	movs	r0, #9
 800bbb0:	f7f4 faa6 	bl	8000100 <__Bios>
 800bbb4:	eb04 4105 	add.w	r1, r4, r5, lsl #16
 800bbb8:	200a      	movs	r0, #10
 800bbba:	e8bd 4038 	ldmia.w	sp!, {r3, r4, r5, lr}
 800bbbe:	f7f4 ba9f 	b.w	8000100 <__Bios>

0800bbc2 <Clr_Scrn>:
 800bbc2:	2100      	movs	r1, #0
 800bbc4:	b538      	push	{r3, r4, r5, lr}
 800bbc6:	4605      	mov	r5, r0
 800bbc8:	4608      	mov	r0, r1
 800bbca:	f7ff ffb3 	bl	800bb34 <Set_Posi>
 800bbce:	f44f 3496 	mov.w	r4, #76800	; 0x12c00
 800bbd2:	4628      	mov	r0, r5
 800bbd4:	f7ff ffba 	bl	800bb4c <Set_Pixel>
 800bbd8:	3c01      	subs	r4, #1
 800bbda:	d1fa      	bne.n	800bbd2 <Clr_Scrn+0x10>
 800bbdc:	bd38      	pop	{r3, r4, r5, pc}

0800bbde <Get_TAB_8x14>:
 800bbde:	3821      	subs	r0, #33	; 0x21
 800bbe0:	b2c3      	uxtb	r3, r0
 800bbe2:	2b5d      	cmp	r3, #93	; 0x5d
 800bbe4:	d807      	bhi.n	800bbf6 <Get_TAB_8x14+0x18>
 800bbe6:	2907      	cmp	r1, #7
 800bbe8:	d805      	bhi.n	800bbf6 <Get_TAB_8x14+0x18>
 800bbea:	4b04      	ldr	r3, [pc, #16]	; (800bbfc <Get_TAB_8x14+0x1e>)
 800bbec:	eb01 01c0 	add.w	r1, r1, r0, lsl #3
 800bbf0:	f833 0011 	ldrh.w	r0, [r3, r1, lsl #1]
 800bbf4:	4770      	bx	lr
 800bbf6:	2000      	movs	r0, #0
 800bbf8:	4770      	bx	lr
 800bbfa:	bf00      	nop
 800bbfc:	0801391a 	.word	0x0801391a

0800bc00 <Disp_Str8x14>:
 800bc00:	e92d 4ff0 	stmdb	sp!, {r4, r5, r6, r7, r8, r9, sl, fp, lr}
 800bc04:	b087      	sub	sp, #28
 800bc06:	f89d 8040 	ldrb.w	r8, [sp, #64]	; 0x40
 800bc0a:	9102      	str	r1, [sp, #8]
 800bc0c:	f008 0110 	and.w	r1, r8, #16
 800bc10:	2900      	cmp	r1, #0
 800bc12:	bf0c      	ite	eq
 800bc14:	4619      	moveq	r1, r3
 800bc16:	4611      	movne	r1, r2
 800bc18:	4605      	mov	r5, r0
 800bc1a:	bf08      	it	eq
 800bc1c:	4693      	moveq	fp, r2
 800bc1e:	9e11      	ldr	r6, [sp, #68]	; 0x44
 800bc20:	bf18      	it	ne
 800bc22:	469b      	movne	fp, r3
 800bc24:	f008 0320 	and.w	r3, r8, #32
 800bc28:	9101      	str	r1, [sp, #4]
 800bc2a:	3e01      	subs	r6, #1
 800bc2c:	9305      	str	r3, [sp, #20]
 800bc2e:	f816 9f01 	ldrb.w	r9, [r6, #1]!
 800bc32:	f1b9 0f00 	cmp.w	r9, #0
 800bc36:	d102      	bne.n	800bc3e <Disp_Str8x14+0x3e>
 800bc38:	b007      	add	sp, #28
 800bc3a:	e8bd 8ff0 	ldmia.w	sp!, {r4, r5, r6, r7, r8, r9, sl, fp, pc}
 800bc3e:	2700      	movs	r7, #0
 800bc40:	f89d 3014 	ldrb.w	r3, [sp, #20]
 800bc44:	9303      	str	r3, [sp, #12]
 800bc46:	f008 0340 	and.w	r3, r8, #64	; 0x40
 800bc4a:	9304      	str	r3, [sp, #16]
 800bc4c:	fa1f fa87 	uxth.w	sl, r7
 800bc50:	9b03      	ldr	r3, [sp, #12]
 800bc52:	eb05 020a 	add.w	r2, r5, sl
 800bc56:	b292      	uxth	r2, r2
 800bc58:	b923      	cbnz	r3, 800bc64 <Disp_Str8x14+0x64>
 800bc5a:	4651      	mov	r1, sl
 800bc5c:	4648      	mov	r0, r9
 800bc5e:	f7ff ffbe 	bl	800bbde <Get_TAB_8x14>
 800bc62:	4604      	mov	r4, r0
 800bc64:	9b04      	ldr	r3, [sp, #16]
 800bc66:	b143      	cbz	r3, 800bc7a <Disp_Str8x14+0x7a>
 800bc68:	4911      	ldr	r1, [pc, #68]	; (800bcb0 <Disp_Str8x14+0xb0>)
 800bc6a:	f01a 0f01 	tst.w	sl, #1
 800bc6e:	f245 5355 	movw	r3, #21845	; 0x5555
 800bc72:	bf18      	it	ne
 800bc74:	460b      	movne	r3, r1
 800bc76:	401c      	ands	r4, r3
 800bc78:	b2a4      	uxth	r4, r4
 800bc7a:	9902      	ldr	r1, [sp, #8]
 800bc7c:	4610      	mov	r0, r2
 800bc7e:	f7ff ff59 	bl	800bb34 <Set_Posi>
 800bc82:	f04f 0a0e 	mov.w	sl, #14
 800bc86:	0763      	lsls	r3, r4, #29
 800bc88:	bf4c      	ite	mi
 800bc8a:	4658      	movmi	r0, fp
 800bc8c:	9801      	ldrpl	r0, [sp, #4]
 800bc8e:	f7ff ff5d 	bl	800bb4c <Set_Pixel>
 800bc92:	f10a 33ff 	add.w	r3, sl, #4294967295	; 0xffffffff
 800bc96:	fa1f fa83 	uxth.w	sl, r3
 800bc9a:	f3c4 044f 	ubfx	r4, r4, #1, #16
 800bc9e:	f1ba 0f00 	cmp.w	sl, #0
 800bca2:	d1f0      	bne.n	800bc86 <Disp_Str8x14+0x86>
 800bca4:	3701      	adds	r7, #1
 800bca6:	2f08      	cmp	r7, #8
 800bca8:	d1d0      	bne.n	800bc4c <Disp_Str8x14+0x4c>
 800bcaa:	3508      	adds	r5, #8
 800bcac:	b2ad      	uxth	r5, r5
 800bcae:	e7be      	b.n	800bc2e <Disp_Str8x14+0x2e>
 800bcb0:	ffffaaaa 	.word	0xffffaaaa

0800bcb4 <Disp_Char8x14>:
 800bcb4:	e92d 4ff7 	stmdb	sp!, {r0, r1, r2, r4, r5, r6, r7, r8, r9, sl, fp, lr}
 800bcb8:	f89d 5030 	ldrb.w	r5, [sp, #48]	; 0x30
 800bcbc:	4688      	mov	r8, r1
 800bcbe:	f005 0110 	and.w	r1, r5, #16
 800bcc2:	2900      	cmp	r1, #0
 800bcc4:	bf14      	ite	ne
 800bcc6:	4693      	movne	fp, r2
 800bcc8:	4692      	moveq	sl, r2
 800bcca:	f04f 0600 	mov.w	r6, #0
 800bcce:	bf0c      	ite	eq
 800bcd0:	469b      	moveq	fp, r3
 800bcd2:	469a      	movne	sl, r3
 800bcd4:	f89d 9034 	ldrb.w	r9, [sp, #52]	; 0x34
 800bcd8:	f005 0320 	and.w	r3, r5, #32
 800bcdc:	9000      	str	r0, [sp, #0]
 800bcde:	9301      	str	r3, [sp, #4]
 800bce0:	f005 0540 	and.w	r5, r5, #64	; 0x40
 800bce4:	9b00      	ldr	r3, [sp, #0]
 800bce6:	b2b7      	uxth	r7, r6
 800bce8:	19da      	adds	r2, r3, r7
 800bcea:	9b01      	ldr	r3, [sp, #4]
 800bcec:	b292      	uxth	r2, r2
 800bcee:	b923      	cbnz	r3, 800bcfa <Disp_Char8x14+0x46>
 800bcf0:	4639      	mov	r1, r7
 800bcf2:	4648      	mov	r0, r9
 800bcf4:	f7ff ff73 	bl	800bbde <Get_TAB_8x14>
 800bcf8:	4604      	mov	r4, r0
 800bcfa:	b145      	cbz	r5, 800bd0e <Disp_Char8x14+0x5a>
 800bcfc:	490f      	ldr	r1, [pc, #60]	; (800bd3c <Disp_Char8x14+0x88>)
 800bcfe:	f017 0f01 	tst.w	r7, #1
 800bd02:	f245 5355 	movw	r3, #21845	; 0x5555
 800bd06:	bf18      	it	ne
 800bd08:	460b      	movne	r3, r1
 800bd0a:	401c      	ands	r4, r3
 800bd0c:	b2a4      	uxth	r4, r4
 800bd0e:	4641      	mov	r1, r8
 800bd10:	4610      	mov	r0, r2
 800bd12:	f7ff ff0f 	bl	800bb34 <Set_Posi>
 800bd16:	270e      	movs	r7, #14
 800bd18:	0763      	lsls	r3, r4, #29
 800bd1a:	bf4c      	ite	mi
 800bd1c:	4650      	movmi	r0, sl
 800bd1e:	4658      	movpl	r0, fp
 800bd20:	f7ff ff14 	bl	800bb4c <Set_Pixel>
 800bd24:	1e7b      	subs	r3, r7, #1
 800bd26:	b29f      	uxth	r7, r3
 800bd28:	f3c4 044f 	ubfx	r4, r4, #1, #16
 800bd2c:	2f00      	cmp	r7, #0
 800bd2e:	d1f3      	bne.n	800bd18 <Disp_Char8x14+0x64>
 800bd30:	3601      	adds	r6, #1
 800bd32:	2e08      	cmp	r6, #8
 800bd34:	d1d6      	bne.n	800bce4 <Disp_Char8x14+0x30>
 800bd36:	b003      	add	sp, #12
 800bd38:	e8bd 8ff0 	ldmia.w	sp!, {r4, r5, r6, r7, r8, r9, sl, fp, pc}
 800bd3c:	ffffaaaa 	.word	0xffffaaaa

0800bd40 <Get_TAB_6x8>:
 800bd40:	3821      	subs	r0, #33	; 0x21
 800bd42:	b2c3      	uxtb	r3, r0
 800bd44:	2b5d      	cmp	r3, #93	; 0x5d
 800bd46:	d809      	bhi.n	800bd5c <Get_TAB_6x8+0x1c>
 800bd48:	2905      	cmp	r1, #5
 800bd4a:	d807      	bhi.n	800bd5c <Get_TAB_6x8+0x1c>
 800bd4c:	2206      	movs	r2, #6
 800bd4e:	4b04      	ldr	r3, [pc, #16]	; (800bd60 <Get_TAB_6x8+0x20>)
 800bd50:	fb02 3000 	mla	r0, r2, r0, r3
 800bd54:	4401      	add	r1, r0
 800bd56:	f891 05f0 	ldrb.w	r0, [r1, #1520]	; 0x5f0
 800bd5a:	4770      	bx	lr
 800bd5c:	2000      	movs	r0, #0
 800bd5e:	4770      	bx	lr
 800bd60:	0801391a 	.word	0x0801391a

0800bd64 <Get_Mini6x8>:
 800bd64:	3821      	subs	r0, #33	; 0x21
 800bd66:	b2c3      	uxtb	r3, r0
 800bd68:	2b5d      	cmp	r3, #93	; 0x5d
 800bd6a:	d809      	bhi.n	800bd80 <Get_Mini6x8+0x1c>
 800bd6c:	2905      	cmp	r1, #5
 800bd6e:	d807      	bhi.n	800bd80 <Get_Mini6x8+0x1c>
 800bd70:	2206      	movs	r2, #6
 800bd72:	4b04      	ldr	r3, [pc, #16]	; (800bd84 <Get_Mini6x8+0x20>)
 800bd74:	fb02 3000 	mla	r0, r2, r0, r3
 800bd78:	4401      	add	r1, r0
 800bd7a:	f891 0824 	ldrb.w	r0, [r1, #2084]	; 0x824
 800bd7e:	4770      	bx	lr
 800bd80:	2000      	movs	r0, #0
 800bd82:	4770      	bx	lr
 800bd84:	0801391a 	.word	0x0801391a

0800bd88 <Disp_Str6x8>:
 800bd88:	e92d 4ff0 	stmdb	sp!, {r4, r5, r6, r7, r8, r9, sl, fp, lr}
 800bd8c:	b089      	sub	sp, #36	; 0x24
 800bd8e:	461d      	mov	r5, r3
 800bd90:	f89d 704c 	ldrb.w	r7, [sp, #76]	; 0x4c
 800bd94:	f89d 3048 	ldrb.w	r3, [sp, #72]	; 0x48
 800bd98:	4614      	mov	r4, r2
 800bd9a:	9304      	str	r3, [sp, #16]
 800bd9c:	e9cd 0102 	strd	r0, r1, [sp, #8]
 800bda0:	f7ff fec8 	bl	800bb34 <Set_Posi>
 800bda4:	2f01      	cmp	r7, #1
 800bda6:	bf0c      	ite	eq
 800bda8:	2306      	moveq	r3, #6
 800bdaa:	2307      	movne	r3, #7
 800bdac:	9306      	str	r3, [sp, #24]
 800bdae:	9b04      	ldr	r3, [sp, #16]
 800bdb0:	f003 0310 	and.w	r3, r3, #16
 800bdb4:	2b00      	cmp	r3, #0
 800bdb6:	bf13      	iteet	ne
 800bdb8:	462b      	movne	r3, r5
 800bdba:	4623      	moveq	r3, r4
 800bdbc:	46a9      	moveq	r9, r5
 800bdbe:	46a1      	movne	r9, r4
 800bdc0:	9301      	str	r3, [sp, #4]
 800bdc2:	9b14      	ldr	r3, [sp, #80]	; 0x50
 800bdc4:	f103 3bff 	add.w	fp, r3, #4294967295	; 0xffffffff
 800bdc8:	f81b 6f01 	ldrb.w	r6, [fp, #1]!
 800bdcc:	b916      	cbnz	r6, 800bdd4 <Disp_Str6x8+0x4c>
 800bdce:	b009      	add	sp, #36	; 0x24
 800bdd0:	e8bd 8ff0 	ldmia.w	sp!, {r4, r5, r6, r7, r8, r9, sl, fp, pc}
 800bdd4:	fab7 f387 	clz	r3, r7
 800bdd8:	095b      	lsrs	r3, r3, #5
 800bdda:	b29a      	uxth	r2, r3
 800bddc:	9205      	str	r2, [sp, #20]
 800bdde:	2206      	movs	r2, #6
 800bde0:	2500      	movs	r5, #0
 800bde2:	f1a6 0821 	sub.w	r8, r6, #33	; 0x21
 800bde6:	fb02 f808 	mul.w	r8, r2, r8
 800bdea:	4a28      	ldr	r2, [pc, #160]	; (800be8c <Disp_Str6x8+0x104>)
 800bdec:	4443      	add	r3, r8
 800bdee:	18d3      	adds	r3, r2, r3
 800bdf0:	9307      	str	r3, [sp, #28]
 800bdf2:	9b05      	ldr	r3, [sp, #20]
 800bdf4:	b2ac      	uxth	r4, r5
 800bdf6:	1919      	adds	r1, r3, r4
 800bdf8:	9b02      	ldr	r3, [sp, #8]
 800bdfa:	b289      	uxth	r1, r1
 800bdfc:	441c      	add	r4, r3
 800bdfe:	9b06      	ldr	r3, [sp, #24]
 800be00:	b2a4      	uxth	r4, r4
 800be02:	428b      	cmp	r3, r1
 800be04:	d801      	bhi.n	800be0a <Disp_Str6x8+0x82>
 800be06:	9402      	str	r4, [sp, #8]
 800be08:	e7de      	b.n	800bdc8 <Disp_Str6x8+0x40>
 800be0a:	9b04      	ldr	r3, [sp, #16]
 800be0c:	2f01      	cmp	r7, #1
 800be0e:	f003 0320 	and.w	r3, r3, #32
 800be12:	d128      	bne.n	800be66 <Disp_Str6x8+0xde>
 800be14:	bb13      	cbnz	r3, 800be5c <Disp_Str6x8+0xd4>
 800be16:	4630      	mov	r0, r6
 800be18:	f7ff ff92 	bl	800bd40 <Get_TAB_6x8>
 800be1c:	4682      	mov	sl, r0
 800be1e:	9903      	ldr	r1, [sp, #12]
 800be20:	4620      	mov	r0, r4
 800be22:	f7ff fe87 	bl	800bb34 <Set_Posi>
 800be26:	4648      	mov	r0, r9
 800be28:	f7ff fe90 	bl	800bb4c <Set_Pixel>
 800be2c:	9b03      	ldr	r3, [sp, #12]
 800be2e:	4620      	mov	r0, r4
 800be30:	1c59      	adds	r1, r3, #1
 800be32:	b289      	uxth	r1, r1
 800be34:	f7ff fe7e 	bl	800bb34 <Set_Posi>
 800be38:	2409      	movs	r4, #9
 800be3a:	2f01      	cmp	r7, #1
 800be3c:	d11a      	bne.n	800be74 <Disp_Str6x8+0xec>
 800be3e:	f01a 0f01 	tst.w	sl, #1
 800be42:	bf14      	ite	ne
 800be44:	9801      	ldrne	r0, [sp, #4]
 800be46:	4648      	moveq	r0, r9
 800be48:	f7ff fe80 	bl	800bb4c <Set_Pixel>
 800be4c:	f3ca 0a4f 	ubfx	sl, sl, #1, #16
 800be50:	3c01      	subs	r4, #1
 800be52:	b2a4      	uxth	r4, r4
 800be54:	2c00      	cmp	r4, #0
 800be56:	d1f0      	bne.n	800be3a <Disp_Str6x8+0xb2>
 800be58:	3501      	adds	r5, #1
 800be5a:	e7ca      	b.n	800bdf2 <Disp_Str6x8+0x6a>
 800be5c:	4b0b      	ldr	r3, [pc, #44]	; (800be8c <Disp_Str6x8+0x104>)
 800be5e:	4443      	add	r3, r8
 800be60:	f813 a005 	ldrb.w	sl, [r3, r5]
 800be64:	e7db      	b.n	800be1e <Disp_Str6x8+0x96>
 800be66:	b91b      	cbnz	r3, 800be70 <Disp_Str6x8+0xe8>
 800be68:	4630      	mov	r0, r6
 800be6a:	f7ff ff7b 	bl	800bd64 <Get_Mini6x8>
 800be6e:	e7d5      	b.n	800be1c <Disp_Str6x8+0x94>
 800be70:	9b07      	ldr	r3, [sp, #28]
 800be72:	e7f5      	b.n	800be60 <Disp_Str6x8+0xd8>
 800be74:	f01a 0f80 	tst.w	sl, #128	; 0x80
 800be78:	bf14      	ite	ne
 800be7a:	9801      	ldrne	r0, [sp, #4]
 800be7c:	4648      	moveq	r0, r9
 800be7e:	f7ff fe65 	bl	800bb4c <Set_Pixel>
 800be82:	ea4f 034a 	mov.w	r3, sl, lsl #1
 800be86:	fa1f fa83 	uxth.w	sl, r3
 800be8a:	e7e1      	b.n	800be50 <Disp_Str6x8+0xc8>
 800be8c:	08014360 	.word	0x08014360

0800be90 <Disp_Str7x9>:
 800be90:	e92d 4ff0 	stmdb	sp!, {r4, r5, r6, r7, r8, r9, sl, fp, lr}
 800be94:	b087      	sub	sp, #28
 800be96:	461d      	mov	r5, r3
 800be98:	f89d b044 	ldrb.w	fp, [sp, #68]	; 0x44
 800be9c:	f89d 3040 	ldrb.w	r3, [sp, #64]	; 0x40
 800bea0:	4614      	mov	r4, r2
 800bea2:	9304      	str	r3, [sp, #16]
 800bea4:	4682      	mov	sl, r0
 800bea6:	9103      	str	r1, [sp, #12]
 800bea8:	f7ff fe44 	bl	800bb34 <Set_Posi>
 800beac:	f1bb 0f01 	cmp.w	fp, #1
 800beb0:	bf0c      	ite	eq
 800beb2:	2306      	moveq	r3, #6
 800beb4:	2307      	movne	r3, #7
 800beb6:	9305      	str	r3, [sp, #20]
 800beb8:	9b04      	ldr	r3, [sp, #16]
 800beba:	f003 0310 	and.w	r3, r3, #16
 800bebe:	2b00      	cmp	r3, #0
 800bec0:	bf13      	iteet	ne
 800bec2:	462b      	movne	r3, r5
